(dp1
I1
(dp2
S'selection'
p3
(lp4
sS'groups'
p5
(dp6
sS'contents'
p7
(lp8
(lp9
c__main__
RectDrawingObject
p10
a(lp11
I803
aI280
aI60
aI60
aNaI0
aI0
aI0
aI230
aI230
aI250
aI2
aI00
aS'region'
p12
aS'pasr1'
p13
aaa(lp14
g10
a(lp15
I751
aI280
aI60
aI60
aNaI0
aI0
aI0
aI230
aI230
aI250
aI2
aI00
ag12
aS'pasl1'
p16
aaa(lp17
g10
a(lp18
I455
aI226
aI60
aI60
aNaI0
aI0
aI0
aI230
aI230
aI250
aI2
aI00
aS'region'
p19
aS'paer1'
p20
aaa(lp21
g10
a(lp22
I455
aI272
aI60
aI60
aNaI0
aI0
aI0
aI230
aI230
aI250
aI2
aI00
ag19
aS'pael1'
p23
aaa(lp24
g10
a(lp25
I87
aI587
aI40
aI35
aNaI0
aI0
aI0
aI255
aI0
aI0
aI2
aI00
aS'mug'
p26
aS'mug1'
p27
aaa(lp28
g10
a(lp29
I857
aI602
aI99
aI94
aS'DOWN'
p30
aI0
aI0
aI0
aI30
aI144
aI255
aI2
aI00
aS'robot'
p31
aS'trixi'
p32
aaa(lp33
g10
a(lp34
I391
aI272
aI60
aI60
aNaI0
aI0
aI0
aI230
aI230
aI250
aI2
aI00
ag12
aS'pawr1'
p35
aaa(lp36
g10
a(lp37
I305
aI251
aI60
aI58
aS'RIGHT'
p38
aI0
aI0
aI0
aI165
aI42
aI42
aI2
aI00
aS'guest'
p39
aS'guest1'
p40
aaa(lp41
g10
a(lp42
I391
aI226
aI60
aI60
aNaI0
aI0
aI0
aI230
aI230
aI250
aI2
aI00
ag12
aS'pawl1'
p43
aaa(lp44
g10
a(lp45
I750
aI216
aI60
aI60
aNaI0
aI0
aI0
aI230
aI230
aI250
aI2
aI00
ag12
aS'panr1'
p46
aaa(lp47
g10
a(lp48
I803
aI216
aI60
aI60
aNaI0
aI0
aI0
aI230
aI230
aI250
aI2
aI00
ag12
aS'panl1'
p49
aaa(lp50
g10
a(lp51
I895
aI218
aI48
aI118
aNaI0
aI0
aI0
aI230
aI230
aI250
aI1
aI00
aS'region'
p52
aS'mae1'
p53
aaa(lp54
g10
a(lp55
I671
aI214
aI48
aI118
aNaI0
aI0
aI0
aI230
aI230
aI250
aI1
aI00
ag52
aS'maw1'
p56
aaa(lp57
g10
a(lp58
I392
aI144
aI118
aI48
aNaI0
aI0
aI0
aI230
aI230
aI250
aI1
aI00
ag52
aS'man1'
p59
aaa(lp60
g10
a(lp61
I390
aI358
aI118
aI48
aNaI0
aI0
aI0
aI230
aI230
aI250
aI1
aI00
ag52
aS'mas1'
p62
aaa(lp63
g10
a(lp64
I757
aI358
aI101
aI63
aS'UP'
p65
aI0
aI0
aI0
aI160
aI32
aI240
aI2
aI00
aS'chair'
p66
aS'sas1'
p67
aaa(lp68
g10
a(lp69
I757
aI130
aI101
aI63
ag30
aI0
aI0
aI0
aI160
aI32
aI240
aI2
aI00
ag66
aS'san1'
p70
aaa(lp71
g10
a(lp72
I535
aI230
aI63
aI101
aS'LEFT'
p73
aI0
aI0
aI0
aI160
aI32
aI240
aI2
aI00
ag66
aS'sae1'
p74
aaa(lp75
g10
a(lp76
I304
aI225
aI63
aI101
aS'RIGHT'
p77
aI0
aI0
aI0
aI160
aI32
aI240
aI2
aI00
ag66
aS'saw1'
p78
aaa(lp79
g10
a(lp80
I75
aI576
aI60
aI150
aNaI0
aI0
aI0
aI215
aI253
aI254
aI2
aI00
ag52
aS'pael3'
p81
aaa(lp82
g10
a(lp83
I74
aI485
aI60
aI150
aNaI0
aI0
aI0
aI215
aI253
aI254
aI2
aI00
ag52
aS'paer3'
p84
aaa(lp85
g10
a(lp86
I11
aI464
aI140
aI280
aNaI0
aI0
aI0
aI144
aI238
aI144
aI2
aI00
aS'counter'
p87
aS'counter1'
p88
aaa(lp89
g10
a(lp90
I736
aI207
aI140
aI140
aNaI0
aI0
aI0
aI255
aI165
aI0
aI2
aI00
aS'table'
p91
aS'table2'
p92
aaa(lp93
g10
a(lp94
I382
aI207
aI140
aI140
aNaI0
aI0
aI0
aI255
aI165
aI0
aI2
aI00
ag91
aS'table1'
p95
aaa(lp96
g10
a(lp97
I177
aI544
aI48
aI118
aNaI0
aI0
aI0
aI230
aI230
aI250
aI1
aI00
ag52
aS'mae3'
p98
aaassI2
(dp99
S'selection'
p100
(lp101
I1
asS'groups'
p102
g6
sS'contents'
p103
(lp104
(lp105
g10
a(lp106
I87
aI587
aI40
aI35
aNaI0
aI0
aI0
aI255
aI0
aI0
aI2
aI00
ag26
ag27
aaa(lp107
g10
a(lp108
I857
aI602
aI99
aI94
ag30
aI0
aI0
aI0
aI30
aI144
aI255
aI2
aI00
ag31
ag32
aaa(lp109
g10
a(lp110
I393
aI272
aI60
aI60
aNaI0
aI0
aI0
aI230
aI230
aI250
aI2
aI00
ag12
ag35
aaa(lp111
g10
a(lp112
I307
aI250
aI60
aI58
aS'RIGHT'
p113
aI0
aI0
aI0
aI165
aI42
aI42
aI2
aI00
ag39
ag40
aaa(lp114
g10
a(lp115
I392
aI226
aI60
aI60
aNaI0
aI0
aI0
aI230
aI230
aI250
aI2
aI00
ag12
ag43
aaa(lp116
g10
a(lp117
I752
aI219
aI60
aI60
aNaI0
aI0
aI0
aI230
aI230
aI250
aI2
aI00
ag12
aS'panw1'
p118
aaa(lp119
g10
a(lp120
I798
aI219
aI60
aI60
aNaI0
aI0
aI0
aI230
aI230
aI250
aI2
aI00
ag12
aS'pane1'
p121
aaa(lp122
g10
a(lp123
I895
aI218
aI48
aI118
aNaI0
aI0
aI0
aI230
aI230
aI250
aI1
aI00
ag52
ag53
aaa(lp124
g10
a(lp125
I671
aI214
aI48
aI118
aNaI0
aI0
aI0
aI230
aI230
aI250
aI1
aI00
ag52
ag56
aaa(lp126
g10
a(lp127
I392
aI144
aI118
aI48
aNaI0
aI0
aI0
aI230
aI230
aI250
aI1
aI00
ag52
ag59
aaa(lp128
g10
a(lp129
I390
aI358
aI118
aI48
aNaI0
aI0
aI0
aI230
aI230
aI250
aI1
aI00
ag52
ag62
aaa(lp130
g10
a(lp131
I757
aI358
aI101
aI63
ag65
aI0
aI0
aI0
aI160
aI32
aI240
aI2
aI00
ag66
ag67
aaa(lp132
g10
a(lp133
I757
aI130
aI101
aI63
ag30
aI0
aI0
aI0
aI160
aI32
aI240
aI2
aI00
ag66
ag70
aaa(lp134
g10
a(lp135
I535
aI230
aI63
aI101
ag73
aI0
aI0
aI0
aI160
aI32
aI240
aI2
aI00
ag66
ag74
aaa(lp136
g10
a(lp137
I304
aI225
aI63
aI101
ag77
aI0
aI0
aI0
aI160
aI32
aI240
aI2
aI00
ag66
ag78
aaa(lp138
g10
a(lp139
I75
aI576
aI60
aI150
aNaI0
aI0
aI0
aI215
aI253
aI254
aI2
aI00
ag52
ag81
aaa(lp140
g10
a(lp141
I74
aI485
aI60
aI150
aNaI0
aI0
aI0
aI215
aI253
aI254
aI2
aI00
ag52
ag84
aaa(lp142
g10
a(lp143
I11
aI464
aI140
aI280
aNaI0
aI0
aI0
aI144
aI238
aI144
aI2
aI00
ag87
ag88
aaa(lp144
g10
a(lp145
I736
aI207
aI140
aI140
aNaI0
aI0
aI0
aI255
aI165
aI0
aI2
aI00
ag91
ag92
aaa(lp146
g10
a(lp147
I382
aI207
aI140
aI140
aNaI0
aI0
aI0
aI255
aI165
aI0
aI2
aI00
ag91
ag95
aaa(lp148
g10
a(lp149
I177
aI544
aI48
aI118
aNaI0
aI0
aI0
aI230
aI230
aI250
aI1
aI00
ag52
ag98
aaassI3
(dp150
g100
(lp151
I1
asg102
g6
sg103
(lp152
(lp153
g10
a(lp154
I87
aI587
aI40
aI35
aNaI0
aI0
aI0
aI255
aI0
aI0
aI2
aI00
ag26
ag27
aaa(lp155
g10
a(lp156
I857
aI602
aI99
aI94
aS'LEFT'
p157
aI0
aI0
aI0
aI30
aI144
aI255
aI2
aI00
ag31
ag32
aaa(lp158
g10
a(lp159
I393
aI272
aI60
aI60
aNaI0
aI0
aI0
aI230
aI230
aI250
aI2
aI00
ag12
ag35
aaa(lp160
g10
a(lp161
I307
aI250
aI60
aI58
ag113
aI0
aI0
aI0
aI165
aI42
aI42
aI2
aI00
ag39
ag40
aaa(lp162
g10
a(lp163
I392
aI226
aI60
aI60
aNaI0
aI0
aI0
aI230
aI230
aI250
aI2
aI00
ag12
ag43
aaa(lp164
g10
a(lp165
I752
aI219
aI60
aI60
aNaI0
aI0
aI0
aI230
aI230
aI250
aI2
aI00
ag12
ag118
aaa(lp166
g10
a(lp167
I798
aI219
aI60
aI60
aNaI0
aI0
aI0
aI230
aI230
aI250
aI2
aI00
ag12
ag121
aaa(lp168
g10
a(lp169
I895
aI218
aI48
aI118
aNaI0
aI0
aI0
aI230
aI230
aI250
aI1
aI00
ag52
ag53
aaa(lp170
g10
a(lp171
I671
aI214
aI48
aI118
aNaI0
aI0
aI0
aI230
aI230
aI250
aI1
aI00
ag52
ag56
aaa(lp172
g10
a(lp173
I392
aI144
aI118
aI48
aNaI0
aI0
aI0
aI230
aI230
aI250
aI1
aI00
ag52
ag59
aaa(lp174
g10
a(lp175
I390
aI358
aI118
aI48
aNaI0
aI0
aI0
aI230
aI230
aI250
aI1
aI00
ag52
ag62
aaa(lp176
g10
a(lp177
I757
aI358
aI101
aI63
ag65
aI0
aI0
aI0
aI160
aI32
aI240
aI2
aI00
ag66
ag67
aaa(lp178
g10
a(lp179
I757
aI130
aI101
aI63
ag30
aI0
aI0
aI0
aI160
aI32
aI240
aI2
aI00
ag66
ag70
aaa(lp180
g10
a(lp181
I535
aI230
aI63
aI101
ag73
aI0
aI0
aI0
aI160
aI32
aI240
aI2
aI00
ag66
ag74
aaa(lp182
g10
a(lp183
I304
aI225
aI63
aI101
ag77
aI0
aI0
aI0
aI160
aI32
aI240
aI2
aI00
ag66
ag78
aaa(lp184
g10
a(lp185
I75
aI576
aI60
aI150
aNaI0
aI0
aI0
aI215
aI253
aI254
aI2
aI00
ag52
ag81
aaa(lp186
g10
a(lp187
I74
aI485
aI60
aI150
aNaI0
aI0
aI0
aI215
aI253
aI254
aI2
aI00
ag52
ag84
aaa(lp188
g10
a(lp189
I11
aI464
aI140
aI280
aNaI0
aI0
aI0
aI144
aI238
aI144
aI2
aI00
ag87
ag88
aaa(lp190
g10
a(lp191
I736
aI207
aI140
aI140
aNaI0
aI0
aI0
aI255
aI165
aI0
aI2
aI00
ag91
ag92
aaa(lp192
g10
a(lp193
I382
aI207
aI140
aI140
aNaI0
aI0
aI0
aI255
aI165
aI0
aI2
aI00
ag91
ag95
aaa(lp194
g10
a(lp195
I177
aI544
aI48
aI118
aNaI0
aI0
aI0
aI230
aI230
aI250
aI1
aI00
ag52
ag98
aaassI4
(dp196
g100
(lp197
I1
asg102
g6
sg103
(lp198
(lp199
g10
a(lp200
I87
aI587
aI40
aI35
aNaI0
aI0
aI0
aI255
aI0
aI0
aI2
aI00
ag26
ag27
aaa(lp201
g10
a(lp202
I857
aI602
aI99
aI94
ag157
aI0
aI0
aI0
aI30
aI144
aI255
aI2
aI00
ag31
ag32
aaa(lp203
g10
a(lp204
I393
aI272
aI60
aI60
aNaI0
aI0
aI0
aI230
aI230
aI250
aI2
aI00
ag12
ag35
aaa(lp205
g10
a(lp206
I307
aI250
aI60
aI58
ag113
aI0
aI0
aI0
aI165
aI42
aI42
aI2
aI00
ag39
ag40
aaa(lp207
g10
a(lp208
I392
aI226
aI60
aI60
aNaI0
aI0
aI0
aI230
aI230
aI250
aI2
aI00
ag12
ag43
aaa(lp209
g10
a(lp210
I752
aI219
aI60
aI60
aNaI0
aI0
aI0
aI230
aI230
aI250
aI2
aI00
ag12
ag118
aaa(lp211
g10
a(lp212
I798
aI219
aI60
aI60
aNaI0
aI0
aI0
aI230
aI230
aI250
aI2
aI00
ag12
ag121
aaa(lp213
g10
a(lp214
I895
aI218
aI48
aI118
aNaI0
aI0
aI0
aI230
aI230
aI250
aI1
aI00
ag52
ag53
aaa(lp215
g10
a(lp216
I671
aI214
aI48
aI118
aNaI0
aI0
aI0
aI230
aI230
aI250
aI1
aI00
ag52
ag56
aaa(lp217
g10
a(lp218
I392
aI144
aI118
aI48
aNaI0
aI0
aI0
aI230
aI230
aI250
aI1
aI00
ag52
ag59
aaa(lp219
g10
a(lp220
I390
aI358
aI118
aI48
aNaI0
aI0
aI0
aI230
aI230
aI250
aI1
aI00
ag52
ag62
aaa(lp221
g10
a(lp222
I757
aI358
aI101
aI63
ag65
aI0
aI0
aI0
aI160
aI32
aI240
aI2
aI00
ag66
ag67
aaa(lp223
g10
a(lp224
I757
aI130
aI101
aI63
ag30
aI0
aI0
aI0
aI160
aI32
aI240
aI2
aI00
ag66
ag70
aaa(lp225
g10
a(lp226
I535
aI230
aI63
aI101
ag73
aI0
aI0
aI0
aI160
aI32
aI240
aI2
aI00
ag66
ag74
aaa(lp227
g10
a(lp228
I304
aI225
aI63
aI101
ag77
aI0
aI0
aI0
aI160
aI32
aI240
aI2
aI00
ag66
ag78
aaa(lp229
g10
a(lp230
I75
aI576
aI60
aI150
aNaI0
aI0
aI0
aI215
aI253
aI254
aI2
aI00
ag52
ag81
aaa(lp231
g10
a(lp232
I74
aI485
aI60
aI150
aNaI0
aI0
aI0
aI215
aI253
aI254
aI2
aI00
ag52
ag84
aaa(lp233
g10
a(lp234
I11
aI464
aI140
aI280
aNaI0
aI0
aI0
aI144
aI238
aI144
aI2
aI00
ag87
ag88
aaa(lp235
g10
a(lp236
I736
aI207
aI140
aI140
aNaI0
aI0
aI0
aI255
aI165
aI0
aI2
aI00
ag91
ag92
aaa(lp237
g10
a(lp238
I382
aI207
aI140
aI140
aNaI0
aI0
aI0
aI255
aI165
aI0
aI2
aI00
ag91
ag95
aaa(lp239
g10
a(lp240
I177
aI544
aI48
aI118
aNaI0
aI0
aI0
aI230
aI230
aI250
aI1
aI00
ag52
ag98
aaassI5
(dp241
g100
(lp242
I1
asg102
g6
sg103
(lp243
(lp244
g10
a(lp245
I87
aI587
aI40
aI35
aNaI0
aI0
aI0
aI255
aI0
aI0
aI2
aI00
ag26
ag27
aaa(lp246
g10
a(lp247
I835
aI600
aI99
aI94
ag157
aI0
aI0
aI0
aI30
aI144
aI255
aI2
aI00
ag31
ag32
aaa(lp248
g10
a(lp249
I393
aI272
aI60
aI60
aNaI0
aI0
aI0
aI230
aI230
aI250
aI2
aI00
ag12
ag35
aaa(lp250
g10
a(lp251
I307
aI250
aI60
aI58
ag113
aI0
aI0
aI0
aI165
aI42
aI42
aI2
aI00
ag39
ag40
aaa(lp252
g10
a(lp253
I392
aI226
aI60
aI60
aNaI0
aI0
aI0
aI230
aI230
aI250
aI2
aI00
ag12
ag43
aaa(lp254
g10
a(lp255
I752
aI219
aI60
aI60
aNaI0
aI0
aI0
aI230
aI230
aI250
aI2
aI00
ag12
ag118
aaa(lp256
g10
a(lp257
I798
aI219
aI60
aI60
aNaI0
aI0
aI0
aI230
aI230
aI250
aI2
aI00
ag12
ag121
aaa(lp258
g10
a(lp259
I895
aI218
aI48
aI118
aNaI0
aI0
aI0
aI230
aI230
aI250
aI1
aI00
ag52
ag53
aaa(lp260
g10
a(lp261
I671
aI214
aI48
aI118
aNaI0
aI0
aI0
aI230
aI230
aI250
aI1
aI00
ag52
ag56
aaa(lp262
g10
a(lp263
I392
aI144
aI118
aI48
aNaI0
aI0
aI0
aI230
aI230
aI250
aI1
aI00
ag52
ag59
aaa(lp264
g10
a(lp265
I390
aI358
aI118
aI48
aNaI0
aI0
aI0
aI230
aI230
aI250
aI1
aI00
ag52
ag62
aaa(lp266
g10
a(lp267
I757
aI358
aI101
aI63
ag65
aI0
aI0
aI0
aI160
aI32
aI240
aI2
aI00
ag66
ag67
aaa(lp268
g10
a(lp269
I757
aI130
aI101
aI63
ag30
aI0
aI0
aI0
aI160
aI32
aI240
aI2
aI00
ag66
ag70
aaa(lp270
g10
a(lp271
I535
aI230
aI63
aI101
ag73
aI0
aI0
aI0
aI160
aI32
aI240
aI2
aI00
ag66
ag74
aaa(lp272
g10
a(lp273
I304
aI225
aI63
aI101
ag77
aI0
aI0
aI0
aI160
aI32
aI240
aI2
aI00
ag66
ag78
aaa(lp274
g10
a(lp275
I75
aI576
aI60
aI150
aNaI0
aI0
aI0
aI215
aI253
aI254
aI2
aI00
ag52
ag81
aaa(lp276
g10
a(lp277
I74
aI485
aI60
aI150
aNaI0
aI0
aI0
aI215
aI253
aI254
aI2
aI00
ag52
ag84
aaa(lp278
g10
a(lp279
I11
aI464
aI140
aI280
aNaI0
aI0
aI0
aI144
aI238
aI144
aI2
aI00
ag87
ag88
aaa(lp280
g10
a(lp281
I736
aI207
aI140
aI140
aNaI0
aI0
aI0
aI255
aI165
aI0
aI2
aI00
ag91
ag92
aaa(lp282
g10
a(lp283
I382
aI207
aI140
aI140
aNaI0
aI0
aI0
aI255
aI165
aI0
aI2
aI00
ag91
ag95
aaa(lp284
g10
a(lp285
I177
aI544
aI48
aI118
aNaI0
aI0
aI0
aI230
aI230
aI250
aI1
aI00
ag52
ag98
aaassI6
(dp286
g100
(lp287
I1
asg102
g6
sg103
(lp288
(lp289
g10
a(lp290
I87
aI587
aI40
aI35
aNaI0
aI0
aI0
aI255
aI0
aI0
aI2
aI00
ag26
ag27
aaa(lp291
g10
a(lp292
I771
aI599
aI99
aI94
ag157
aI0
aI0
aI0
aI30
aI144
aI255
aI2
aI00
ag31
ag32
aaa(lp293
g10
a(lp294
I393
aI272
aI60
aI60
aNaI0
aI0
aI0
aI230
aI230
aI250
aI2
aI00
ag12
ag35
aaa(lp295
g10
a(lp296
I307
aI250
aI60
aI58
ag113
aI0
aI0
aI0
aI165
aI42
aI42
aI2
aI00
ag39
ag40
aaa(lp297
g10
a(lp298
I392
aI226
aI60
aI60
aNaI0
aI0
aI0
aI230
aI230
aI250
aI2
aI00
ag12
ag43
aaa(lp299
g10
a(lp300
I752
aI219
aI60
aI60
aNaI0
aI0
aI0
aI230
aI230
aI250
aI2
aI00
ag12
ag118
aaa(lp301
g10
a(lp302
I798
aI219
aI60
aI60
aNaI0
aI0
aI0
aI230
aI230
aI250
aI2
aI00
ag12
ag121
aaa(lp303
g10
a(lp304
I895
aI218
aI48
aI118
aNaI0
aI0
aI0
aI230
aI230
aI250
aI1
aI00
ag52
ag53
aaa(lp305
g10
a(lp306
I671
aI214
aI48
aI118
aNaI0
aI0
aI0
aI230
aI230
aI250
aI1
aI00
ag52
ag56
aaa(lp307
g10
a(lp308
I392
aI144
aI118
aI48
aNaI0
aI0
aI0
aI230
aI230
aI250
aI1
aI00
ag52
ag59
aaa(lp309
g10
a(lp310
I390
aI358
aI118
aI48
aNaI0
aI0
aI0
aI230
aI230
aI250
aI1
aI00
ag52
ag62
aaa(lp311
g10
a(lp312
I757
aI358
aI101
aI63
ag65
aI0
aI0
aI0
aI160
aI32
aI240
aI2
aI00
ag66
ag67
aaa(lp313
g10
a(lp314
I757
aI130
aI101
aI63
ag30
aI0
aI0
aI0
aI160
aI32
aI240
aI2
aI00
ag66
ag70
aaa(lp315
g10
a(lp316
I535
aI230
aI63
aI101
ag73
aI0
aI0
aI0
aI160
aI32
aI240
aI2
aI00
ag66
ag74
aaa(lp317
g10
a(lp318
I304
aI225
aI63
aI101
ag77
aI0
aI0
aI0
aI160
aI32
aI240
aI2
aI00
ag66
ag78
aaa(lp319
g10
a(lp320
I75
aI576
aI60
aI150
aNaI0
aI0
aI0
aI215
aI253
aI254
aI2
aI00
ag52
ag81
aaa(lp321
g10
a(lp322
I74
aI485
aI60
aI150
aNaI0
aI0
aI0
aI215
aI253
aI254
aI2
aI00
ag52
ag84
aaa(lp323
g10
a(lp324
I11
aI464
aI140
aI280
aNaI0
aI0
aI0
aI144
aI238
aI144
aI2
aI00
ag87
ag88
aaa(lp325
g10
a(lp326
I736
aI207
aI140
aI140
aNaI0
aI0
aI0
aI255
aI165
aI0
aI2
aI00
ag91
ag92
aaa(lp327
g10
a(lp328
I382
aI207
aI140
aI140
aNaI0
aI0
aI0
aI255
aI165
aI0
aI2
aI00
ag91
ag95
aaa(lp329
g10
a(lp330
I177
aI544
aI48
aI118
aNaI0
aI0
aI0
aI230
aI230
aI250
aI1
aI00
ag52
ag98
aaassI7
(dp331
g100
(lp332
I1
asg102
g6
sg103
(lp333
(lp334
g10
a(lp335
I87
aI587
aI40
aI35
aNaI0
aI0
aI0
aI255
aI0
aI0
aI2
aI00
ag26
ag27
aaa(lp336
g10
a(lp337
I711
aI588
aI99
aI94
ag157
aI0
aI0
aI0
aI30
aI144
aI255
aI2
aI00
ag31
ag32
aaa(lp338
g10
a(lp339
I393
aI272
aI60
aI60
aNaI0
aI0
aI0
aI230
aI230
aI250
aI2
aI00
ag12
ag35
aaa(lp340
g10
a(lp341
I307
aI250
aI60
aI58
ag113
aI0
aI0
aI0
aI165
aI42
aI42
aI2
aI00
ag39
ag40
aaa(lp342
g10
a(lp343
I392
aI226
aI60
aI60
aNaI0
aI0
aI0
aI230
aI230
aI250
aI2
aI00
ag12
ag43
aaa(lp344
g10
a(lp345
I752
aI219
aI60
aI60
aNaI0
aI0
aI0
aI230
aI230
aI250
aI2
aI00
ag12
ag118
aaa(lp346
g10
a(lp347
I798
aI219
aI60
aI60
aNaI0
aI0
aI0
aI230
aI230
aI250
aI2
aI00
ag12
ag121
aaa(lp348
g10
a(lp349
I895
aI218
aI48
aI118
aNaI0
aI0
aI0
aI230
aI230
aI250
aI1
aI00
ag52
ag53
aaa(lp350
g10
a(lp351
I671
aI214
aI48
aI118
aNaI0
aI0
aI0
aI230
aI230
aI250
aI1
aI00
ag52
ag56
aaa(lp352
g10
a(lp353
I392
aI144
aI118
aI48
aNaI0
aI0
aI0
aI230
aI230
aI250
aI1
aI00
ag52
ag59
aaa(lp354
g10
a(lp355
I390
aI358
aI118
aI48
aNaI0
aI0
aI0
aI230
aI230
aI250
aI1
aI00
ag52
ag62
aaa(lp356
g10
a(lp357
I757
aI358
aI101
aI63
ag65
aI0
aI0
aI0
aI160
aI32
aI240
aI2
aI00
ag66
ag67
aaa(lp358
g10
a(lp359
I757
aI130
aI101
aI63
ag30
aI0
aI0
aI0
aI160
aI32
aI240
aI2
aI00
ag66
ag70
aaa(lp360
g10
a(lp361
I535
aI230
aI63
aI101
ag73
aI0
aI0
aI0
aI160
aI32
aI240
aI2
aI00
ag66
ag74
aaa(lp362
g10
a(lp363
I304
aI225
aI63
aI101
ag77
aI0
aI0
aI0
aI160
aI32
aI240
aI2
aI00
ag66
ag78
aaa(lp364
g10
a(lp365
I75
aI576
aI60
aI150
aNaI0
aI0
aI0
aI215
aI253
aI254
aI2
aI00
ag52
ag81
aaa(lp366
g10
a(lp367
I74
aI485
aI60
aI150
aNaI0
aI0
aI0
aI215
aI253
aI254
aI2
aI00
ag52
ag84
aaa(lp368
g10
a(lp369
I11
aI464
aI140
aI280
aNaI0
aI0
aI0
aI144
aI238
aI144
aI2
aI00
ag87
ag88
aaa(lp370
g10
a(lp371
I736
aI207
aI140
aI140
aNaI0
aI0
aI0
aI255
aI165
aI0
aI2
aI00
ag91
ag92
aaa(lp372
g10
a(lp373
I382
aI207
aI140
aI140
aNaI0
aI0
aI0
aI255
aI165
aI0
aI2
aI00
ag91
ag95
aaa(lp374
g10
a(lp375
I177
aI544
aI48
aI118
aNaI0
aI0
aI0
aI230
aI230
aI250
aI1
aI00
ag52
ag98
aaassI8
(dp376
g100
(lp377
I1
asg102
g6
sg103
(lp378
(lp379
g10
a(lp380
I87
aI587
aI40
aI35
aNaI0
aI0
aI0
aI255
aI0
aI0
aI2
aI00
ag26
ag27
aaa(lp381
g10
a(lp382
I626
aI586
aI99
aI94
ag157
aI0
aI0
aI0
aI30
aI144
aI255
aI2
aI00
ag31
ag32
aaa(lp383
g10
a(lp384
I393
aI272
aI60
aI60
aNaI0
aI0
aI0
aI230
aI230
aI250
aI2
aI00
ag12
ag35
aaa(lp385
g10
a(lp386
I307
aI250
aI60
aI58
ag113
aI0
aI0
aI0
aI165
aI42
aI42
aI2
aI00
ag39
ag40
aaa(lp387
g10
a(lp388
I392
aI226
aI60
aI60
aNaI0
aI0
aI0
aI230
aI230
aI250
aI2
aI00
ag12
ag43
aaa(lp389
g10
a(lp390
I752
aI219
aI60
aI60
aNaI0
aI0
aI0
aI230
aI230
aI250
aI2
aI00
ag12
ag118
aaa(lp391
g10
a(lp392
I798
aI219
aI60
aI60
aNaI0
aI0
aI0
aI230
aI230
aI250
aI2
aI00
ag12
ag121
aaa(lp393
g10
a(lp394
I895
aI218
aI48
aI118
aNaI0
aI0
aI0
aI230
aI230
aI250
aI1
aI00
ag52
ag53
aaa(lp395
g10
a(lp396
I671
aI214
aI48
aI118
aNaI0
aI0
aI0
aI230
aI230
aI250
aI1
aI00
ag52
ag56
aaa(lp397
g10
a(lp398
I392
aI144
aI118
aI48
aNaI0
aI0
aI0
aI230
aI230
aI250
aI1
aI00
ag52
ag59
aaa(lp399
g10
a(lp400
I390
aI358
aI118
aI48
aNaI0
aI0
aI0
aI230
aI230
aI250
aI1
aI00
ag52
ag62
aaa(lp401
g10
a(lp402
I757
aI358
aI101
aI63
ag65
aI0
aI0
aI0
aI160
aI32
aI240
aI2
aI00
ag66
ag67
aaa(lp403
g10
a(lp404
I757
aI130
aI101
aI63
ag30
aI0
aI0
aI0
aI160
aI32
aI240
aI2
aI00
ag66
ag70
aaa(lp405
g10
a(lp406
I535
aI230
aI63
aI101
ag73
aI0
aI0
aI0
aI160
aI32
aI240
aI2
aI00
ag66
ag74
aaa(lp407
g10
a(lp408
I304
aI225
aI63
aI101
ag77
aI0
aI0
aI0
aI160
aI32
aI240
aI2
aI00
ag66
ag78
aaa(lp409
g10
a(lp410
I75
aI576
aI60
aI150
aNaI0
aI0
aI0
aI215
aI253
aI254
aI2
aI00
ag52
ag81
aaa(lp411
g10
a(lp412
I74
aI485
aI60
aI150
aNaI0
aI0
aI0
aI215
aI253
aI254
aI2
aI00
ag52
ag84
aaa(lp413
g10
a(lp414
I11
aI464
aI140
aI280
aNaI0
aI0
aI0
aI144
aI238
aI144
aI2
aI00
ag87
ag88
aaa(lp415
g10
a(lp416
I736
aI207
aI140
aI140
aNaI0
aI0
aI0
aI255
aI165
aI0
aI2
aI00
ag91
ag92
aaa(lp417
g10
a(lp418
I382
aI207
aI140
aI140
aNaI0
aI0
aI0
aI255
aI165
aI0
aI2
aI00
ag91
ag95
aaa(lp419
g10
a(lp420
I177
aI544
aI48
aI118
aNaI0
aI0
aI0
aI230
aI230
aI250
aI1
aI00
ag52
ag98
aaassI9
(dp421
g100
(lp422
I1
asg102
g6
sg103
(lp423
(lp424
g10
a(lp425
I87
aI587
aI40
aI35
aNaI0
aI0
aI0
aI255
aI0
aI0
aI2
aI00
ag26
ag27
aaa(lp426
g10
a(lp427
I502
aI581
aI99
aI94
ag157
aI0
aI0
aI0
aI30
aI144
aI255
aI2
aI00
ag31
ag32
aaa(lp428
g10
a(lp429
I393
aI272
aI60
aI60
aNaI0
aI0
aI0
aI230
aI230
aI250
aI2
aI00
ag12
ag35
aaa(lp430
g10
a(lp431
I307
aI250
aI60
aI58
ag113
aI0
aI0
aI0
aI165
aI42
aI42
aI2
aI00
ag39
ag40
aaa(lp432
g10
a(lp433
I392
aI226
aI60
aI60
aNaI0
aI0
aI0
aI230
aI230
aI250
aI2
aI00
ag12
ag43
aaa(lp434
g10
a(lp435
I752
aI219
aI60
aI60
aNaI0
aI0
aI0
aI230
aI230
aI250
aI2
aI00
ag12
ag118
aaa(lp436
g10
a(lp437
I798
aI219
aI60
aI60
aNaI0
aI0
aI0
aI230
aI230
aI250
aI2
aI00
ag12
ag121
aaa(lp438
g10
a(lp439
I895
aI218
aI48
aI118
aNaI0
aI0
aI0
aI230
aI230
aI250
aI1
aI00
ag52
ag53
aaa(lp440
g10
a(lp441
I671
aI214
aI48
aI118
aNaI0
aI0
aI0
aI230
aI230
aI250
aI1
aI00
ag52
ag56
aaa(lp442
g10
a(lp443
I392
aI144
aI118
aI48
aNaI0
aI0
aI0
aI230
aI230
aI250
aI1
aI00
ag52
ag59
aaa(lp444
g10
a(lp445
I390
aI358
aI118
aI48
aNaI0
aI0
aI0
aI230
aI230
aI250
aI1
aI00
ag52
ag62
aaa(lp446
g10
a(lp447
I757
aI358
aI101
aI63
ag65
aI0
aI0
aI0
aI160
aI32
aI240
aI2
aI00
ag66
ag67
aaa(lp448
g10
a(lp449
I757
aI130
aI101
aI63
ag30
aI0
aI0
aI0
aI160
aI32
aI240
aI2
aI00
ag66
ag70
aaa(lp450
g10
a(lp451
I535
aI230
aI63
aI101
ag73
aI0
aI0
aI0
aI160
aI32
aI240
aI2
aI00
ag66
ag74
aaa(lp452
g10
a(lp453
I304
aI225
aI63
aI101
ag77
aI0
aI0
aI0
aI160
aI32
aI240
aI2
aI00
ag66
ag78
aaa(lp454
g10
a(lp455
I75
aI576
aI60
aI150
aNaI0
aI0
aI0
aI215
aI253
aI254
aI2
aI00
ag52
ag81
aaa(lp456
g10
a(lp457
I74
aI485
aI60
aI150
aNaI0
aI0
aI0
aI215
aI253
aI254
aI2
aI00
ag52
ag84
aaa(lp458
g10
a(lp459
I11
aI464
aI140
aI280
aNaI0
aI0
aI0
aI144
aI238
aI144
aI2
aI00
ag87
ag88
aaa(lp460
g10
a(lp461
I736
aI207
aI140
aI140
aNaI0
aI0
aI0
aI255
aI165
aI0
aI2
aI00
ag91
ag92
aaa(lp462
g10
a(lp463
I382
aI207
aI140
aI140
aNaI0
aI0
aI0
aI255
aI165
aI0
aI2
aI00
ag91
ag95
aaa(lp464
g10
a(lp465
I177
aI544
aI48
aI118
aNaI0
aI0
aI0
aI230
aI230
aI250
aI1
aI00
ag52
ag98
aaassI10
(dp466
g100
(lp467
I1
asg102
g6
sg103
(lp468
(lp469
g10
a(lp470
I87
aI587
aI40
aI35
aNaI0
aI0
aI0
aI255
aI0
aI0
aI2
aI00
ag26
ag27
aaa(lp471
g10
a(lp472
I411
aI581
aI99
aI94
ag157
aI0
aI0
aI0
aI30
aI144
aI255
aI2
aI00
ag31
ag32
aaa(lp473
g10
a(lp474
I393
aI272
aI60
aI60
aNaI0
aI0
aI0
aI230
aI230
aI250
aI2
aI00
ag12
ag35
aaa(lp475
g10
a(lp476
I307
aI250
aI60
aI58
ag113
aI0
aI0
aI0
aI165
aI42
aI42
aI2
aI00
ag39
ag40
aaa(lp477
g10
a(lp478
I392
aI226
aI60
aI60
aNaI0
aI0
aI0
aI230
aI230
aI250
aI2
aI00
ag12
ag43
aaa(lp479
g10
a(lp480
I752
aI219
aI60
aI60
aNaI0
aI0
aI0
aI230
aI230
aI250
aI2
aI00
ag12
ag118
aaa(lp481
g10
a(lp482
I798
aI219
aI60
aI60
aNaI0
aI0
aI0
aI230
aI230
aI250
aI2
aI00
ag12
ag121
aaa(lp483
g10
a(lp484
I895
aI218
aI48
aI118
aNaI0
aI0
aI0
aI230
aI230
aI250
aI1
aI00
ag52
ag53
aaa(lp485
g10
a(lp486
I671
aI214
aI48
aI118
aNaI0
aI0
aI0
aI230
aI230
aI250
aI1
aI00
ag52
ag56
aaa(lp487
g10
a(lp488
I392
aI144
aI118
aI48
aNaI0
aI0
aI0
aI230
aI230
aI250
aI1
aI00
ag52
ag59
aaa(lp489
g10
a(lp490
I390
aI358
aI118
aI48
aNaI0
aI0
aI0
aI230
aI230
aI250
aI1
aI00
ag52
ag62
aaa(lp491
g10
a(lp492
I757
aI358
aI101
aI63
ag65
aI0
aI0
aI0
aI160
aI32
aI240
aI2
aI00
ag66
ag67
aaa(lp493
g10
a(lp494
I757
aI130
aI101
aI63
ag30
aI0
aI0
aI0
aI160
aI32
aI240
aI2
aI00
ag66
ag70
aaa(lp495
g10
a(lp496
I535
aI230
aI63
aI101
ag73
aI0
aI0
aI0
aI160
aI32
aI240
aI2
aI00
ag66
ag74
aaa(lp497
g10
a(lp498
I304
aI225
aI63
aI101
ag77
aI0
aI0
aI0
aI160
aI32
aI240
aI2
aI00
ag66
ag78
aaa(lp499
g10
a(lp500
I75
aI576
aI60
aI150
aNaI0
aI0
aI0
aI215
aI253
aI254
aI2
aI00
ag52
ag81
aaa(lp501
g10
a(lp502
I74
aI485
aI60
aI150
aNaI0
aI0
aI0
aI215
aI253
aI254
aI2
aI00
ag52
ag84
aaa(lp503
g10
a(lp504
I11
aI464
aI140
aI280
aNaI0
aI0
aI0
aI144
aI238
aI144
aI2
aI00
ag87
ag88
aaa(lp505
g10
a(lp506
I736
aI207
aI140
aI140
aNaI0
aI0
aI0
aI255
aI165
aI0
aI2
aI00
ag91
ag92
aaa(lp507
g10
a(lp508
I382
aI207
aI140
aI140
aNaI0
aI0
aI0
aI255
aI165
aI0
aI2
aI00
ag91
ag95
aaa(lp509
g10
a(lp510
I177
aI544
aI48
aI118
aNaI0
aI0
aI0
aI230
aI230
aI250
aI1
aI00
ag52
ag98
aaassI11
(dp511
g100
(lp512
I1
asg102
g6
sg103
(lp513
(lp514
g10
a(lp515
I87
aI587
aI40
aI35
aNaI0
aI0
aI0
aI255
aI0
aI0
aI2
aI00
ag26
ag27
aaa(lp516
g10
a(lp517
I326
aI580
aI99
aI94
ag157
aI0
aI0
aI0
aI30
aI144
aI255
aI2
aI00
ag31
ag32
aaa(lp518
g10
a(lp519
I393
aI272
aI60
aI60
aNaI0
aI0
aI0
aI230
aI230
aI250
aI2
aI00
ag12
ag35
aaa(lp520
g10
a(lp521
I307
aI250
aI60
aI58
ag113
aI0
aI0
aI0
aI165
aI42
aI42
aI2
aI00
ag39
ag40
aaa(lp522
g10
a(lp523
I392
aI226
aI60
aI60
aNaI0
aI0
aI0
aI230
aI230
aI250
aI2
aI00
ag12
ag43
aaa(lp524
g10
a(lp525
I752
aI219
aI60
aI60
aNaI0
aI0
aI0
aI230
aI230
aI250
aI2
aI00
ag12
ag118
aaa(lp526
g10
a(lp527
I798
aI219
aI60
aI60
aNaI0
aI0
aI0
aI230
aI230
aI250
aI2
aI00
ag12
ag121
aaa(lp528
g10
a(lp529
I895
aI218
aI48
aI118
aNaI0
aI0
aI0
aI230
aI230
aI250
aI1
aI00
ag52
ag53
aaa(lp530
g10
a(lp531
I671
aI214
aI48
aI118
aNaI0
aI0
aI0
aI230
aI230
aI250
aI1
aI00
ag52
ag56
aaa(lp532
g10
a(lp533
I392
aI144
aI118
aI48
aNaI0
aI0
aI0
aI230
aI230
aI250
aI1
aI00
ag52
ag59
aaa(lp534
g10
a(lp535
I390
aI358
aI118
aI48
aNaI0
aI0
aI0
aI230
aI230
aI250
aI1
aI00
ag52
ag62
aaa(lp536
g10
a(lp537
I757
aI358
aI101
aI63
ag65
aI0
aI0
aI0
aI160
aI32
aI240
aI2
aI00
ag66
ag67
aaa(lp538
g10
a(lp539
I757
aI130
aI101
aI63
ag30
aI0
aI0
aI0
aI160
aI32
aI240
aI2
aI00
ag66
ag70
aaa(lp540
g10
a(lp541
I535
aI230
aI63
aI101
ag73
aI0
aI0
aI0
aI160
aI32
aI240
aI2
aI00
ag66
ag74
aaa(lp542
g10
a(lp543
I304
aI225
aI63
aI101
ag77
aI0
aI0
aI0
aI160
aI32
aI240
aI2
aI00
ag66
ag78
aaa(lp544
g10
a(lp545
I75
aI576
aI60
aI150
aNaI0
aI0
aI0
aI215
aI253
aI254
aI2
aI00
ag52
ag81
aaa(lp546
g10
a(lp547
I74
aI485
aI60
aI150
aNaI0
aI0
aI0
aI215
aI253
aI254
aI2
aI00
ag52
ag84
aaa(lp548
g10
a(lp549
I11
aI464
aI140
aI280
aNaI0
aI0
aI0
aI144
aI238
aI144
aI2
aI00
ag87
ag88
aaa(lp550
g10
a(lp551
I736
aI207
aI140
aI140
aNaI0
aI0
aI0
aI255
aI165
aI0
aI2
aI00
ag91
ag92
aaa(lp552
g10
a(lp553
I382
aI207
aI140
aI140
aNaI0
aI0
aI0
aI255
aI165
aI0
aI2
aI00
ag91
ag95
aaa(lp554
g10
a(lp555
I177
aI544
aI48
aI118
aNaI0
aI0
aI0
aI230
aI230
aI250
aI1
aI00
ag52
ag98
aaassI12
(dp556
g100
(lp557
I1
asg102
g6
sg103
(lp558
(lp559
g10
a(lp560
I87
aI587
aI40
aI35
aNaI0
aI0
aI0
aI255
aI0
aI0
aI2
aI00
ag26
ag27
aaa(lp561
g10
a(lp562
I238
aI576
aI99
aI94
ag157
aI0
aI0
aI0
aI30
aI144
aI255
aI2
aI00
ag31
ag32
aaa(lp563
g10
a(lp564
I393
aI272
aI60
aI60
aNaI0
aI0
aI0
aI230
aI230
aI250
aI2
aI00
ag12
ag35
aaa(lp565
g10
a(lp566
I307
aI250
aI60
aI58
ag113
aI0
aI0
aI0
aI165
aI42
aI42
aI2
aI00
ag39
ag40
aaa(lp567
g10
a(lp568
I392
aI226
aI60
aI60
aNaI0
aI0
aI0
aI230
aI230
aI250
aI2
aI00
ag12
ag43
aaa(lp569
g10
a(lp570
I752
aI219
aI60
aI60
aNaI0
aI0
aI0
aI230
aI230
aI250
aI2
aI00
ag12
ag118
aaa(lp571
g10
a(lp572
I798
aI219
aI60
aI60
aNaI0
aI0
aI0
aI230
aI230
aI250
aI2
aI00
ag12
ag121
aaa(lp573
g10
a(lp574
I895
aI218
aI48
aI118
aNaI0
aI0
aI0
aI230
aI230
aI250
aI1
aI00
ag52
ag53
aaa(lp575
g10
a(lp576
I671
aI214
aI48
aI118
aNaI0
aI0
aI0
aI230
aI230
aI250
aI1
aI00
ag52
ag56
aaa(lp577
g10
a(lp578
I392
aI144
aI118
aI48
aNaI0
aI0
aI0
aI230
aI230
aI250
aI1
aI00
ag52
ag59
aaa(lp579
g10
a(lp580
I390
aI358
aI118
aI48
aNaI0
aI0
aI0
aI230
aI230
aI250
aI1
aI00
ag52
ag62
aaa(lp581
g10
a(lp582
I757
aI358
aI101
aI63
ag65
aI0
aI0
aI0
aI160
aI32
aI240
aI2
aI00
ag66
ag67
aaa(lp583
g10
a(lp584
I757
aI130
aI101
aI63
ag30
aI0
aI0
aI0
aI160
aI32
aI240
aI2
aI00
ag66
ag70
aaa(lp585
g10
a(lp586
I535
aI230
aI63
aI101
ag73
aI0
aI0
aI0
aI160
aI32
aI240
aI2
aI00
ag66
ag74
aaa(lp587
g10
a(lp588
I304
aI225
aI63
aI101
ag77
aI0
aI0
aI0
aI160
aI32
aI240
aI2
aI00
ag66
ag78
aaa(lp589
g10
a(lp590
I75
aI576
aI60
aI150
aNaI0
aI0
aI0
aI215
aI253
aI254
aI2
aI00
ag52
ag81
aaa(lp591
g10
a(lp592
I74
aI485
aI60
aI150
aNaI0
aI0
aI0
aI215
aI253
aI254
aI2
aI00
ag52
ag84
aaa(lp593
g10
a(lp594
I11
aI464
aI140
aI280
aNaI0
aI0
aI0
aI144
aI238
aI144
aI2
aI00
ag87
ag88
aaa(lp595
g10
a(lp596
I736
aI207
aI140
aI140
aNaI0
aI0
aI0
aI255
aI165
aI0
aI2
aI00
ag91
ag92
aaa(lp597
g10
a(lp598
I382
aI207
aI140
aI140
aNaI0
aI0
aI0
aI255
aI165
aI0
aI2
aI00
ag91
ag95
aaa(lp599
g10
a(lp600
I177
aI544
aI48
aI118
aNaI0
aI0
aI0
aI230
aI230
aI250
aI1
aI00
ag52
ag98
aaassI13
(dp601
g100
(lp602
I1
asg102
g6
sg103
(lp603
(lp604
g10
a(lp605
I87
aI587
aI40
aI35
aNaI0
aI0
aI0
aI255
aI0
aI0
aI2
aI00
ag26
ag27
aaa(lp606
g10
a(lp607
I199
aI572
aI99
aI94
ag157
aI0
aI0
aI0
aI30
aI144
aI255
aI2
aI00
ag31
ag32
aaa(lp608
g10
a(lp609
I393
aI272
aI60
aI60
aNaI0
aI0
aI0
aI230
aI230
aI250
aI2
aI00
ag12
ag35
aaa(lp610
g10
a(lp611
I307
aI250
aI60
aI58
ag113
aI0
aI0
aI0
aI165
aI42
aI42
aI2
aI00
ag39
ag40
aaa(lp612
g10
a(lp613
I392
aI226
aI60
aI60
aNaI0
aI0
aI0
aI230
aI230
aI250
aI2
aI00
ag12
ag43
aaa(lp614
g10
a(lp615
I752
aI219
aI60
aI60
aNaI0
aI0
aI0
aI230
aI230
aI250
aI2
aI00
ag12
ag118
aaa(lp616
g10
a(lp617
I798
aI219
aI60
aI60
aNaI0
aI0
aI0
aI230
aI230
aI250
aI2
aI00
ag12
ag121
aaa(lp618
g10
a(lp619
I895
aI218
aI48
aI118
aNaI0
aI0
aI0
aI230
aI230
aI250
aI1
aI00
ag52
ag53
aaa(lp620
g10
a(lp621
I671
aI214
aI48
aI118
aNaI0
aI0
aI0
aI230
aI230
aI250
aI1
aI00
ag52
ag56
aaa(lp622
g10
a(lp623
I392
aI144
aI118
aI48
aNaI0
aI0
aI0
aI230
aI230
aI250
aI1
aI00
ag52
ag59
aaa(lp624
g10
a(lp625
I390
aI358
aI118
aI48
aNaI0
aI0
aI0
aI230
aI230
aI250
aI1
aI00
ag52
ag62
aaa(lp626
g10
a(lp627
I757
aI358
aI101
aI63
ag65
aI0
aI0
aI0
aI160
aI32
aI240
aI2
aI00
ag66
ag67
aaa(lp628
g10
a(lp629
I757
aI130
aI101
aI63
ag30
aI0
aI0
aI0
aI160
aI32
aI240
aI2
aI00
ag66
ag70
aaa(lp630
g10
a(lp631
I535
aI230
aI63
aI101
ag73
aI0
aI0
aI0
aI160
aI32
aI240
aI2
aI00
ag66
ag74
aaa(lp632
g10
a(lp633
I304
aI225
aI63
aI101
ag77
aI0
aI0
aI0
aI160
aI32
aI240
aI2
aI00
ag66
ag78
aaa(lp634
g10
a(lp635
I75
aI576
aI60
aI150
aNaI0
aI0
aI0
aI215
aI253
aI254
aI2
aI00
ag52
ag81
aaa(lp636
g10
a(lp637
I74
aI485
aI60
aI150
aNaI0
aI0
aI0
aI215
aI253
aI254
aI2
aI00
ag52
ag84
aaa(lp638
g10
a(lp639
I11
aI464
aI140
aI280
aNaI0
aI0
aI0
aI144
aI238
aI144
aI2
aI00
ag87
ag88
aaa(lp640
g10
a(lp641
I736
aI207
aI140
aI140
aNaI0
aI0
aI0
aI255
aI165
aI0
aI2
aI00
ag91
ag92
aaa(lp642
g10
a(lp643
I382
aI207
aI140
aI140
aNaI0
aI0
aI0
aI255
aI165
aI0
aI2
aI00
ag91
ag95
aaa(lp644
g10
a(lp645
I177
aI544
aI48
aI118
aNaI0
aI0
aI0
aI230
aI230
aI250
aI1
aI00
ag52
ag98
aaassI14
(dp646
g100
(lp647
I1
asg102
g6
sg103
(lp648
(lp649
g10
a(lp650
I87
aI587
aI40
aI35
aNaI0
aI0
aI0
aI255
aI0
aI0
aI2
aI00
ag26
ag27
aaa(lp651
g10
a(lp652
I169
aI570
aI99
aI94
ag157
aI0
aI0
aI0
aI30
aI144
aI255
aI2
aI00
ag31
ag32
aaa(lp653
g10
a(lp654
I393
aI272
aI60
aI60
aNaI0
aI0
aI0
aI230
aI230
aI250
aI2
aI00
ag12
ag35
aaa(lp655
g10
a(lp656
I307
aI250
aI60
aI58
ag113
aI0
aI0
aI0
aI165
aI42
aI42
aI2
aI00
ag39
ag40
aaa(lp657
g10
a(lp658
I392
aI226
aI60
aI60
aNaI0
aI0
aI0
aI230
aI230
aI250
aI2
aI00
ag12
ag43
aaa(lp659
g10
a(lp660
I752
aI219
aI60
aI60
aNaI0
aI0
aI0
aI230
aI230
aI250
aI2
aI00
ag12
ag118
aaa(lp661
g10
a(lp662
I798
aI219
aI60
aI60
aNaI0
aI0
aI0
aI230
aI230
aI250
aI2
aI00
ag12
ag121
aaa(lp663
g10
a(lp664
I895
aI218
aI48
aI118
aNaI0
aI0
aI0
aI230
aI230
aI250
aI1
aI00
ag52
ag53
aaa(lp665
g10
a(lp666
I671
aI214
aI48
aI118
aNaI0
aI0
aI0
aI230
aI230
aI250
aI1
aI00
ag52
ag56
aaa(lp667
g10
a(lp668
I392
aI144
aI118
aI48
aNaI0
aI0
aI0
aI230
aI230
aI250
aI1
aI00
ag52
ag59
aaa(lp669
g10
a(lp670
I390
aI358
aI118
aI48
aNaI0
aI0
aI0
aI230
aI230
aI250
aI1
aI00
ag52
ag62
aaa(lp671
g10
a(lp672
I757
aI358
aI101
aI63
ag65
aI0
aI0
aI0
aI160
aI32
aI240
aI2
aI00
ag66
ag67
aaa(lp673
g10
a(lp674
I757
aI130
aI101
aI63
ag30
aI0
aI0
aI0
aI160
aI32
aI240
aI2
aI00
ag66
ag70
aaa(lp675
g10
a(lp676
I535
aI230
aI63
aI101
ag73
aI0
aI0
aI0
aI160
aI32
aI240
aI2
aI00
ag66
ag74
aaa(lp677
g10
a(lp678
I304
aI225
aI63
aI101
ag77
aI0
aI0
aI0
aI160
aI32
aI240
aI2
aI00
ag66
ag78
aaa(lp679
g10
a(lp680
I75
aI576
aI60
aI150
aNaI0
aI0
aI0
aI215
aI253
aI254
aI2
aI00
ag52
ag81
aaa(lp681
g10
a(lp682
I74
aI485
aI60
aI150
aNaI0
aI0
aI0
aI215
aI253
aI254
aI2
aI00
ag52
ag84
aaa(lp683
g10
a(lp684
I11
aI464
aI140
aI280
aNaI0
aI0
aI0
aI144
aI238
aI144
aI2
aI00
ag87
ag88
aaa(lp685
g10
a(lp686
I736
aI207
aI140
aI140
aNaI0
aI0
aI0
aI255
aI165
aI0
aI2
aI00
ag91
ag92
aaa(lp687
g10
a(lp688
I382
aI207
aI140
aI140
aNaI0
aI0
aI0
aI255
aI165
aI0
aI2
aI00
ag91
ag95
aaa(lp689
g10
a(lp690
I177
aI544
aI48
aI118
aNaI0
aI0
aI0
aI230
aI230
aI250
aI1
aI00
ag52
ag98
aaassI15
(dp691
g100
(lp692
I1
asg102
g6
sg103
(lp693
(lp694
g10
a(lp695
I87
aI587
aI40
aI35
aNaI0
aI0
aI0
aI255
aI0
aI0
aI2
aI00
ag26
ag27
aaa(lp696
g10
a(lp697
I161
aI572
aI99
aI94
ag157
aI0
aI0
aI0
aI30
aI144
aI255
aI2
aI00
ag31
ag32
aaa(lp698
g10
a(lp699
I393
aI272
aI60
aI60
aNaI0
aI0
aI0
aI230
aI230
aI250
aI2
aI00
ag12
ag35
aaa(lp700
g10
a(lp701
I307
aI250
aI60
aI58
ag113
aI0
aI0
aI0
aI165
aI42
aI42
aI2
aI00
ag39
ag40
aaa(lp702
g10
a(lp703
I392
aI226
aI60
aI60
aNaI0
aI0
aI0
aI230
aI230
aI250
aI2
aI00
ag12
ag43
aaa(lp704
g10
a(lp705
I752
aI219
aI60
aI60
aNaI0
aI0
aI0
aI230
aI230
aI250
aI2
aI00
ag12
ag118
aaa(lp706
g10
a(lp707
I798
aI219
aI60
aI60
aNaI0
aI0
aI0
aI230
aI230
aI250
aI2
aI00
ag12
ag121
aaa(lp708
g10
a(lp709
I895
aI218
aI48
aI118
aNaI0
aI0
aI0
aI230
aI230
aI250
aI1
aI00
ag52
ag53
aaa(lp710
g10
a(lp711
I671
aI214
aI48
aI118
aNaI0
aI0
aI0
aI230
aI230
aI250
aI1
aI00
ag52
ag56
aaa(lp712
g10
a(lp713
I392
aI144
aI118
aI48
aNaI0
aI0
aI0
aI230
aI230
aI250
aI1
aI00
ag52
ag59
aaa(lp714
g10
a(lp715
I390
aI358
aI118
aI48
aNaI0
aI0
aI0
aI230
aI230
aI250
aI1
aI00
ag52
ag62
aaa(lp716
g10
a(lp717
I757
aI358
aI101
aI63
ag65
aI0
aI0
aI0
aI160
aI32
aI240
aI2
aI00
ag66
ag67
aaa(lp718
g10
a(lp719
I757
aI130
aI101
aI63
ag30
aI0
aI0
aI0
aI160
aI32
aI240
aI2
aI00
ag66
ag70
aaa(lp720
g10
a(lp721
I535
aI230
aI63
aI101
ag73
aI0
aI0
aI0
aI160
aI32
aI240
aI2
aI00
ag66
ag74
aaa(lp722
g10
a(lp723
I304
aI225
aI63
aI101
ag77
aI0
aI0
aI0
aI160
aI32
aI240
aI2
aI00
ag66
ag78
aaa(lp724
g10
a(lp725
I75
aI576
aI60
aI150
aNaI0
aI0
aI0
aI215
aI253
aI254
aI2
aI00
ag52
ag81
aaa(lp726
g10
a(lp727
I74
aI485
aI60
aI150
aNaI0
aI0
aI0
aI215
aI253
aI254
aI2
aI00
ag52
ag84
aaa(lp728
g10
a(lp729
I11
aI464
aI140
aI280
aNaI0
aI0
aI0
aI144
aI238
aI144
aI2
aI00
ag87
ag88
aaa(lp730
g10
a(lp731
I736
aI207
aI140
aI140
aNaI0
aI0
aI0
aI255
aI165
aI0
aI2
aI00
ag91
ag92
aaa(lp732
g10
a(lp733
I382
aI207
aI140
aI140
aNaI0
aI0
aI0
aI255
aI165
aI0
aI2
aI00
ag91
ag95
aaa(lp734
g10
a(lp735
I177
aI544
aI48
aI118
aNaI0
aI0
aI0
aI230
aI230
aI250
aI1
aI00
ag52
ag98
aaassI16
(dp736
g100
(lp737
I1
asg102
g6
sg103
(lp738
(lp739
g10
a(lp740
I87
aI587
aI40
aI35
aNaI0
aI0
aI0
aI255
aI0
aI0
aI2
aI00
ag26
ag27
aaa(lp741
g10
a(lp742
I156
aI572
aI99
aI94
ag157
aI0
aI0
aI0
aI30
aI144
aI255
aI2
aI00
ag31
ag32
aaa(lp743
g10
a(lp744
I393
aI272
aI60
aI60
aNaI0
aI0
aI0
aI230
aI230
aI250
aI2
aI00
ag12
ag35
aaa(lp745
g10
a(lp746
I307
aI250
aI60
aI58
ag113
aI0
aI0
aI0
aI165
aI42
aI42
aI2
aI00
ag39
ag40
aaa(lp747
g10
a(lp748
I392
aI226
aI60
aI60
aNaI0
aI0
aI0
aI230
aI230
aI250
aI2
aI00
ag12
ag43
aaa(lp749
g10
a(lp750
I752
aI219
aI60
aI60
aNaI0
aI0
aI0
aI230
aI230
aI250
aI2
aI00
ag12
ag118
aaa(lp751
g10
a(lp752
I798
aI219
aI60
aI60
aNaI0
aI0
aI0
aI230
aI230
aI250
aI2
aI00
ag12
ag121
aaa(lp753
g10
a(lp754
I895
aI218
aI48
aI118
aNaI0
aI0
aI0
aI230
aI230
aI250
aI1
aI00
ag52
ag53
aaa(lp755
g10
a(lp756
I671
aI214
aI48
aI118
aNaI0
aI0
aI0
aI230
aI230
aI250
aI1
aI00
ag52
ag56
aaa(lp757
g10
a(lp758
I392
aI144
aI118
aI48
aNaI0
aI0
aI0
aI230
aI230
aI250
aI1
aI00
ag52
ag59
aaa(lp759
g10
a(lp760
I390
aI358
aI118
aI48
aNaI0
aI0
aI0
aI230
aI230
aI250
aI1
aI00
ag52
ag62
aaa(lp761
g10
a(lp762
I757
aI358
aI101
aI63
ag65
aI0
aI0
aI0
aI160
aI32
aI240
aI2
aI00
ag66
ag67
aaa(lp763
g10
a(lp764
I757
aI130
aI101
aI63
ag30
aI0
aI0
aI0
aI160
aI32
aI240
aI2
aI00
ag66
ag70
aaa(lp765
g10
a(lp766
I535
aI230
aI63
aI101
ag73
aI0
aI0
aI0
aI160
aI32
aI240
aI2
aI00
ag66
ag74
aaa(lp767
g10
a(lp768
I304
aI225
aI63
aI101
ag77
aI0
aI0
aI0
aI160
aI32
aI240
aI2
aI00
ag66
ag78
aaa(lp769
g10
a(lp770
I75
aI576
aI60
aI150
aNaI0
aI0
aI0
aI215
aI253
aI254
aI2
aI00
ag52
ag81
aaa(lp771
g10
a(lp772
I74
aI485
aI60
aI150
aNaI0
aI0
aI0
aI215
aI253
aI254
aI2
aI00
ag52
ag84
aaa(lp773
g10
a(lp774
I11
aI464
aI140
aI280
aNaI0
aI0
aI0
aI144
aI238
aI144
aI2
aI00
ag87
ag88
aaa(lp775
g10
a(lp776
I736
aI207
aI140
aI140
aNaI0
aI0
aI0
aI255
aI165
aI0
aI2
aI00
ag91
ag92
aaa(lp777
g10
a(lp778
I382
aI207
aI140
aI140
aNaI0
aI0
aI0
aI255
aI165
aI0
aI2
aI00
ag91
ag95
aaa(lp779
g10
a(lp780
I177
aI544
aI48
aI118
aNaI0
aI0
aI0
aI230
aI230
aI250
aI1
aI00
ag52
ag98
aaassI17
(dp781
g100
(lp782
I1
asg102
g6
sg103
(lp783
(lp784
g10
a(lp785
I87
aI587
aI40
aI35
aNaI0
aI0
aI0
aI255
aI0
aI0
aI2
aI00
ag26
ag27
aaa(lp786
g10
a(lp787
I155
aI572
aI99
aI94
ag157
aI0
aI0
aI0
aI30
aI144
aI255
aI2
aI00
ag31
ag32
aaa(lp788
g10
a(lp789
I393
aI272
aI60
aI60
aNaI0
aI0
aI0
aI230
aI230
aI250
aI2
aI00
ag12
ag35
aaa(lp790
g10
a(lp791
I307
aI250
aI60
aI58
ag113
aI0
aI0
aI0
aI165
aI42
aI42
aI2
aI00
ag39
ag40
aaa(lp792
g10
a(lp793
I392
aI226
aI60
aI60
aNaI0
aI0
aI0
aI230
aI230
aI250
aI2
aI00
ag12
ag43
aaa(lp794
g10
a(lp795
I752
aI219
aI60
aI60
aNaI0
aI0
aI0
aI230
aI230
aI250
aI2
aI00
ag12
ag118
aaa(lp796
g10
a(lp797
I798
aI219
aI60
aI60
aNaI0
aI0
aI0
aI230
aI230
aI250
aI2
aI00
ag12
ag121
aaa(lp798
g10
a(lp799
I895
aI218
aI48
aI118
aNaI0
aI0
aI0
aI230
aI230
aI250
aI1
aI00
ag52
ag53
aaa(lp800
g10
a(lp801
I671
aI214
aI48
aI118
aNaI0
aI0
aI0
aI230
aI230
aI250
aI1
aI00
ag52
ag56
aaa(lp802
g10
a(lp803
I392
aI144
aI118
aI48
aNaI0
aI0
aI0
aI230
aI230
aI250
aI1
aI00
ag52
ag59
aaa(lp804
g10
a(lp805
I390
aI358
aI118
aI48
aNaI0
aI0
aI0
aI230
aI230
aI250
aI1
aI00
ag52
ag62
aaa(lp806
g10
a(lp807
I757
aI358
aI101
aI63
ag65
aI0
aI0
aI0
aI160
aI32
aI240
aI2
aI00
ag66
ag67
aaa(lp808
g10
a(lp809
I757
aI130
aI101
aI63
ag30
aI0
aI0
aI0
aI160
aI32
aI240
aI2
aI00
ag66
ag70
aaa(lp810
g10
a(lp811
I535
aI230
aI63
aI101
ag73
aI0
aI0
aI0
aI160
aI32
aI240
aI2
aI00
ag66
ag74
aaa(lp812
g10
a(lp813
I304
aI225
aI63
aI101
ag77
aI0
aI0
aI0
aI160
aI32
aI240
aI2
aI00
ag66
ag78
aaa(lp814
g10
a(lp815
I75
aI576
aI60
aI150
aNaI0
aI0
aI0
aI215
aI253
aI254
aI2
aI00
ag52
ag81
aaa(lp816
g10
a(lp817
I74
aI485
aI60
aI150
aNaI0
aI0
aI0
aI215
aI253
aI254
aI2
aI00
ag52
ag84
aaa(lp818
g10
a(lp819
I11
aI464
aI140
aI280
aNaI0
aI0
aI0
aI144
aI238
aI144
aI2
aI00
ag87
ag88
aaa(lp820
g10
a(lp821
I736
aI207
aI140
aI140
aNaI0
aI0
aI0
aI255
aI165
aI0
aI2
aI00
ag91
ag92
aaa(lp822
g10
a(lp823
I382
aI207
aI140
aI140
aNaI0
aI0
aI0
aI255
aI165
aI0
aI2
aI00
ag91
ag95
aaa(lp824
g10
a(lp825
I177
aI544
aI48
aI118
aNaI0
aI0
aI0
aI230
aI230
aI250
aI1
aI00
ag52
ag98
aaassI18
(dp826
g100
(lp827
I1
asg102
g6
sg103
(lp828
(lp829
g10
a(lp830
I87
aI587
aI40
aI35
aNaI0
aI0
aI0
aI255
aI0
aI0
aI2
aI00
ag26
ag27
aaa(lp831
g10
a(lp832
I155
aI572
aI99
aI94
ag157
aI0
aI0
aI0
aI30
aI144
aI255
aI2
aI00
ag31
ag32
aaa(lp833
g10
a(lp834
I393
aI272
aI60
aI60
aNaI0
aI0
aI0
aI230
aI230
aI250
aI2
aI00
ag12
ag35
aaa(lp835
g10
a(lp836
I307
aI250
aI60
aI58
ag113
aI0
aI0
aI0
aI165
aI42
aI42
aI2
aI00
ag39
ag40
aaa(lp837
g10
a(lp838
I392
aI226
aI60
aI60
aNaI0
aI0
aI0
aI230
aI230
aI250
aI2
aI00
ag12
ag43
aaa(lp839
g10
a(lp840
I752
aI219
aI60
aI60
aNaI0
aI0
aI0
aI230
aI230
aI250
aI2
aI00
ag12
ag118
aaa(lp841
g10
a(lp842
I798
aI219
aI60
aI60
aNaI0
aI0
aI0
aI230
aI230
aI250
aI2
aI00
ag12
ag121
aaa(lp843
g10
a(lp844
I895
aI218
aI48
aI118
aNaI0
aI0
aI0
aI230
aI230
aI250
aI1
aI00
ag52
ag53
aaa(lp845
g10
a(lp846
I671
aI214
aI48
aI118
aNaI0
aI0
aI0
aI230
aI230
aI250
aI1
aI00
ag52
ag56
aaa(lp847
g10
a(lp848
I392
aI144
aI118
aI48
aNaI0
aI0
aI0
aI230
aI230
aI250
aI1
aI00
ag52
ag59
aaa(lp849
g10
a(lp850
I390
aI358
aI118
aI48
aNaI0
aI0
aI0
aI230
aI230
aI250
aI1
aI00
ag52
ag62
aaa(lp851
g10
a(lp852
I757
aI358
aI101
aI63
ag65
aI0
aI0
aI0
aI160
aI32
aI240
aI2
aI00
ag66
ag67
aaa(lp853
g10
a(lp854
I757
aI130
aI101
aI63
ag30
aI0
aI0
aI0
aI160
aI32
aI240
aI2
aI00
ag66
ag70
aaa(lp855
g10
a(lp856
I535
aI230
aI63
aI101
ag73
aI0
aI0
aI0
aI160
aI32
aI240
aI2
aI00
ag66
ag74
aaa(lp857
g10
a(lp858
I304
aI225
aI63
aI101
ag77
aI0
aI0
aI0
aI160
aI32
aI240
aI2
aI00
ag66
ag78
aaa(lp859
g10
a(lp860
I75
aI576
aI60
aI150
aNaI0
aI0
aI0
aI215
aI253
aI254
aI2
aI00
ag52
ag81
aaa(lp861
g10
a(lp862
I74
aI485
aI60
aI150
aNaI0
aI0
aI0
aI215
aI253
aI254
aI2
aI00
ag52
ag84
aaa(lp863
g10
a(lp864
I11
aI464
aI140
aI280
aNaI0
aI0
aI0
aI144
aI238
aI144
aI2
aI00
ag87
ag88
aaa(lp865
g10
a(lp866
I736
aI207
aI140
aI140
aNaI0
aI0
aI0
aI255
aI165
aI0
aI2
aI00
ag91
ag92
aaa(lp867
g10
a(lp868
I382
aI207
aI140
aI140
aNaI0
aI0
aI0
aI255
aI165
aI0
aI2
aI00
ag91
ag95
aaa(lp869
g10
a(lp870
I177
aI544
aI48
aI118
aNaI0
aI0
aI0
aI230
aI230
aI250
aI1
aI00
ag52
ag98
aaassI19
(dp871
g100
(lp872
I1
asg102
g6
sg103
(lp873
(lp874
g10
a(lp875
I87
aI587
aI40
aI35
aNaI0
aI0
aI0
aI255
aI0
aI0
aI2
aI00
ag26
ag27
aaa(lp876
g10
a(lp877
I155
aI572
aI99
aI94
ag157
aI0
aI0
aI0
aI30
aI144
aI255
aI2
aI00
ag31
ag32
aaa(lp878
g10
a(lp879
I393
aI272
aI60
aI60
aNaI0
aI0
aI0
aI230
aI230
aI250
aI2
aI00
ag12
ag35
aaa(lp880
g10
a(lp881
I307
aI250
aI60
aI58
ag113
aI0
aI0
aI0
aI165
aI42
aI42
aI2
aI00
ag39
ag40
aaa(lp882
g10
a(lp883
I392
aI226
aI60
aI60
aNaI0
aI0
aI0
aI230
aI230
aI250
aI2
aI00
ag12
ag43
aaa(lp884
g10
a(lp885
I752
aI219
aI60
aI60
aNaI0
aI0
aI0
aI230
aI230
aI250
aI2
aI00
ag12
ag118
aaa(lp886
g10
a(lp887
I798
aI219
aI60
aI60
aNaI0
aI0
aI0
aI230
aI230
aI250
aI2
aI00
ag12
ag121
aaa(lp888
g10
a(lp889
I895
aI218
aI48
aI118
aNaI0
aI0
aI0
aI230
aI230
aI250
aI1
aI00
ag52
ag53
aaa(lp890
g10
a(lp891
I671
aI214
aI48
aI118
aNaI0
aI0
aI0
aI230
aI230
aI250
aI1
aI00
ag52
ag56
aaa(lp892
g10
a(lp893
I392
aI144
aI118
aI48
aNaI0
aI0
aI0
aI230
aI230
aI250
aI1
aI00
ag52
ag59
aaa(lp894
g10
a(lp895
I390
aI358
aI118
aI48
aNaI0
aI0
aI0
aI230
aI230
aI250
aI1
aI00
ag52
ag62
aaa(lp896
g10
a(lp897
I757
aI358
aI101
aI63
ag65
aI0
aI0
aI0
aI160
aI32
aI240
aI2
aI00
ag66
ag67
aaa(lp898
g10
a(lp899
I757
aI130
aI101
aI63
ag30
aI0
aI0
aI0
aI160
aI32
aI240
aI2
aI00
ag66
ag70
aaa(lp900
g10
a(lp901
I535
aI230
aI63
aI101
ag73
aI0
aI0
aI0
aI160
aI32
aI240
aI2
aI00
ag66
ag74
aaa(lp902
g10
a(lp903
I304
aI225
aI63
aI101
ag77
aI0
aI0
aI0
aI160
aI32
aI240
aI2
aI00
ag66
ag78
aaa(lp904
g10
a(lp905
I75
aI576
aI60
aI150
aNaI0
aI0
aI0
aI215
aI253
aI254
aI2
aI00
ag52
ag81
aaa(lp906
g10
a(lp907
I74
aI485
aI60
aI150
aNaI0
aI0
aI0
aI215
aI253
aI254
aI2
aI00
ag52
ag84
aaa(lp908
g10
a(lp909
I11
aI464
aI140
aI280
aNaI0
aI0
aI0
aI144
aI238
aI144
aI2
aI00
ag87
ag88
aaa(lp910
g10
a(lp911
I736
aI207
aI140
aI140
aNaI0
aI0
aI0
aI255
aI165
aI0
aI2
aI00
ag91
ag92
aaa(lp912
g10
a(lp913
I382
aI207
aI140
aI140
aNaI0
aI0
aI0
aI255
aI165
aI0
aI2
aI00
ag91
ag95
aaa(lp914
g10
a(lp915
I177
aI544
aI48
aI118
aNaI0
aI0
aI0
aI230
aI230
aI250
aI1
aI00
ag52
ag98
aaassI20
(dp916
g100
(lp917
I0
asg102
g6
sg103
(lp918
(lp919
g10
a(lp920
I87
aI587
aI40
aI35
aNaI0
aI0
aI0
aI255
aI0
aI0
aI2
aI00
ag26
ag27
aaa(lp921
g10
a(lp922
I155
aI572
aI99
aI94
ag157
aI0
aI0
aI0
aI30
aI144
aI255
aI2
aI00
ag31
ag32
aaa(lp923
g10
a(lp924
I393
aI272
aI60
aI60
aNaI0
aI0
aI0
aI230
aI230
aI250
aI2
aI00
ag12
ag35
aaa(lp925
g10
a(lp926
I307
aI250
aI60
aI58
ag113
aI0
aI0
aI0
aI165
aI42
aI42
aI2
aI00
ag39
ag40
aaa(lp927
g10
a(lp928
I392
aI226
aI60
aI60
aNaI0
aI0
aI0
aI230
aI230
aI250
aI2
aI00
ag12
ag43
aaa(lp929
g10
a(lp930
I752
aI219
aI60
aI60
aNaI0
aI0
aI0
aI230
aI230
aI250
aI2
aI00
ag12
ag118
aaa(lp931
g10
a(lp932
I798
aI219
aI60
aI60
aNaI0
aI0
aI0
aI230
aI230
aI250
aI2
aI00
ag12
ag121
aaa(lp933
g10
a(lp934
I895
aI218
aI48
aI118
aNaI0
aI0
aI0
aI230
aI230
aI250
aI1
aI00
ag52
ag53
aaa(lp935
g10
a(lp936
I671
aI214
aI48
aI118
aNaI0
aI0
aI0
aI230
aI230
aI250
aI1
aI00
ag52
ag56
aaa(lp937
g10
a(lp938
I392
aI144
aI118
aI48
aNaI0
aI0
aI0
aI230
aI230
aI250
aI1
aI00
ag52
ag59
aaa(lp939
g10
a(lp940
I390
aI358
aI118
aI48
aNaI0
aI0
aI0
aI230
aI230
aI250
aI1
aI00
ag52
ag62
aaa(lp941
g10
a(lp942
I757
aI358
aI101
aI63
ag65
aI0
aI0
aI0
aI160
aI32
aI240
aI2
aI00
ag66
ag67
aaa(lp943
g10
a(lp944
I757
aI130
aI101
aI63
ag30
aI0
aI0
aI0
aI160
aI32
aI240
aI2
aI00
ag66
ag70
aaa(lp945
g10
a(lp946
I535
aI230
aI63
aI101
ag73
aI0
aI0
aI0
aI160
aI32
aI240
aI2
aI00
ag66
ag74
aaa(lp947
g10
a(lp948
I304
aI225
aI63
aI101
ag77
aI0
aI0
aI0
aI160
aI32
aI240
aI2
aI00
ag66
ag78
aaa(lp949
g10
a(lp950
I75
aI576
aI60
aI150
aNaI0
aI0
aI0
aI215
aI253
aI254
aI2
aI00
ag52
ag81
aaa(lp951
g10
a(lp952
I74
aI485
aI60
aI150
aNaI0
aI0
aI0
aI215
aI253
aI254
aI2
aI00
ag52
ag84
aaa(lp953
g10
a(lp954
I11
aI464
aI140
aI280
aNaI0
aI0
aI0
aI144
aI238
aI144
aI2
aI00
ag87
ag88
aaa(lp955
g10
a(lp956
I736
aI207
aI140
aI140
aNaI0
aI0
aI0
aI255
aI165
aI0
aI2
aI00
ag91
ag92
aaa(lp957
g10
a(lp958
I382
aI207
aI140
aI140
aNaI0
aI0
aI0
aI255
aI165
aI0
aI2
aI00
ag91
ag95
aaa(lp959
g10
a(lp960
I177
aI544
aI48
aI118
aNaI0
aI0
aI0
aI230
aI230
aI250
aI1
aI00
ag52
ag98
aaassI21
(dp961
g100
(lp962
I0
asg102
g6
sg103
(lp963
(lp964
g10
a(lp965
I92
aI587
aI40
aI35
aNaI0
aI0
aI0
aI255
aI0
aI0
aI2
aI00
ag26
ag27
aaa(lp966
g10
a(lp967
I155
aI572
aI99
aI94
ag157
aI0
aI0
aI0
aI30
aI144
aI255
aI2
aI00
ag31
ag32
aaa(lp968
g10
a(lp969
I393
aI272
aI60
aI60
aNaI0
aI0
aI0
aI230
aI230
aI250
aI2
aI00
ag12
ag35
aaa(lp970
g10
a(lp971
I307
aI250
aI60
aI58
ag113
aI0
aI0
aI0
aI165
aI42
aI42
aI2
aI00
ag39
ag40
aaa(lp972
g10
a(lp973
I392
aI226
aI60
aI60
aNaI0
aI0
aI0
aI230
aI230
aI250
aI2
aI00
ag12
ag43
aaa(lp974
g10
a(lp975
I752
aI219
aI60
aI60
aNaI0
aI0
aI0
aI230
aI230
aI250
aI2
aI00
ag12
ag118
aaa(lp976
g10
a(lp977
I798
aI219
aI60
aI60
aNaI0
aI0
aI0
aI230
aI230
aI250
aI2
aI00
ag12
ag121
aaa(lp978
g10
a(lp979
I895
aI218
aI48
aI118
aNaI0
aI0
aI0
aI230
aI230
aI250
aI1
aI00
ag52
ag53
aaa(lp980
g10
a(lp981
I671
aI214
aI48
aI118
aNaI0
aI0
aI0
aI230
aI230
aI250
aI1
aI00
ag52
ag56
aaa(lp982
g10
a(lp983
I392
aI144
aI118
aI48
aNaI0
aI0
aI0
aI230
aI230
aI250
aI1
aI00
ag52
ag59
aaa(lp984
g10
a(lp985
I390
aI358
aI118
aI48
aNaI0
aI0
aI0
aI230
aI230
aI250
aI1
aI00
ag52
ag62
aaa(lp986
g10
a(lp987
I757
aI358
aI101
aI63
ag65
aI0
aI0
aI0
aI160
aI32
aI240
aI2
aI00
ag66
ag67
aaa(lp988
g10
a(lp989
I757
aI130
aI101
aI63
ag30
aI0
aI0
aI0
aI160
aI32
aI240
aI2
aI00
ag66
ag70
aaa(lp990
g10
a(lp991
I535
aI230
aI63
aI101
ag73
aI0
aI0
aI0
aI160
aI32
aI240
aI2
aI00
ag66
ag74
aaa(lp992
g10
a(lp993
I304
aI225
aI63
aI101
ag77
aI0
aI0
aI0
aI160
aI32
aI240
aI2
aI00
ag66
ag78
aaa(lp994
g10
a(lp995
I75
aI576
aI60
aI150
aNaI0
aI0
aI0
aI215
aI253
aI254
aI2
aI00
ag52
ag81
aaa(lp996
g10
a(lp997
I74
aI485
aI60
aI150
aNaI0
aI0
aI0
aI215
aI253
aI254
aI2
aI00
ag52
ag84
aaa(lp998
g10
a(lp999
I11
aI464
aI140
aI280
aNaI0
aI0
aI0
aI144
aI238
aI144
aI2
aI00
ag87
ag88
aaa(lp1000
g10
a(lp1001
I736
aI207
aI140
aI140
aNaI0
aI0
aI0
aI255
aI165
aI0
aI2
aI00
ag91
ag92
aaa(lp1002
g10
a(lp1003
I382
aI207
aI140
aI140
aNaI0
aI0
aI0
aI255
aI165
aI0
aI2
aI00
ag91
ag95
aaa(lp1004
g10
a(lp1005
I177
aI544
aI48
aI118
aNaI0
aI0
aI0
aI230
aI230
aI250
aI1
aI00
ag52
ag98
aaassI22
(dp1006
g100
(lp1007
I0
asg102
g6
sg103
(lp1008
(lp1009
g10
a(lp1010
I104
aI588
aI40
aI35
aNaI0
aI0
aI0
aI255
aI0
aI0
aI2
aI00
ag26
ag27
aaa(lp1011
g10
a(lp1012
I155
aI572
aI99
aI94
ag157
aI0
aI0
aI0
aI30
aI144
aI255
aI2
aI00
ag31
ag32
aaa(lp1013
g10
a(lp1014
I393
aI272
aI60
aI60
aNaI0
aI0
aI0
aI230
aI230
aI250
aI2
aI00
ag12
ag35
aaa(lp1015
g10
a(lp1016
I307
aI250
aI60
aI58
ag113
aI0
aI0
aI0
aI165
aI42
aI42
aI2
aI00
ag39
ag40
aaa(lp1017
g10
a(lp1018
I392
aI226
aI60
aI60
aNaI0
aI0
aI0
aI230
aI230
aI250
aI2
aI00
ag12
ag43
aaa(lp1019
g10
a(lp1020
I752
aI219
aI60
aI60
aNaI0
aI0
aI0
aI230
aI230
aI250
aI2
aI00
ag12
ag118
aaa(lp1021
g10
a(lp1022
I798
aI219
aI60
aI60
aNaI0
aI0
aI0
aI230
aI230
aI250
aI2
aI00
ag12
ag121
aaa(lp1023
g10
a(lp1024
I895
aI218
aI48
aI118
aNaI0
aI0
aI0
aI230
aI230
aI250
aI1
aI00
ag52
ag53
aaa(lp1025
g10
a(lp1026
I671
aI214
aI48
aI118
aNaI0
aI0
aI0
aI230
aI230
aI250
aI1
aI00
ag52
ag56
aaa(lp1027
g10
a(lp1028
I392
aI144
aI118
aI48
aNaI0
aI0
aI0
aI230
aI230
aI250
aI1
aI00
ag52
ag59
aaa(lp1029
g10
a(lp1030
I390
aI358
aI118
aI48
aNaI0
aI0
aI0
aI230
aI230
aI250
aI1
aI00
ag52
ag62
aaa(lp1031
g10
a(lp1032
I757
aI358
aI101
aI63
ag65
aI0
aI0
aI0
aI160
aI32
aI240
aI2
aI00
ag66
ag67
aaa(lp1033
g10
a(lp1034
I757
aI130
aI101
aI63
ag30
aI0
aI0
aI0
aI160
aI32
aI240
aI2
aI00
ag66
ag70
aaa(lp1035
g10
a(lp1036
I535
aI230
aI63
aI101
ag73
aI0
aI0
aI0
aI160
aI32
aI240
aI2
aI00
ag66
ag74
aaa(lp1037
g10
a(lp1038
I304
aI225
aI63
aI101
ag77
aI0
aI0
aI0
aI160
aI32
aI240
aI2
aI00
ag66
ag78
aaa(lp1039
g10
a(lp1040
I75
aI576
aI60
aI150
aNaI0
aI0
aI0
aI215
aI253
aI254
aI2
aI00
ag52
ag81
aaa(lp1041
g10
a(lp1042
I74
aI485
aI60
aI150
aNaI0
aI0
aI0
aI215
aI253
aI254
aI2
aI00
ag52
ag84
aaa(lp1043
g10
a(lp1044
I11
aI464
aI140
aI280
aNaI0
aI0
aI0
aI144
aI238
aI144
aI2
aI00
ag87
ag88
aaa(lp1045
g10
a(lp1046
I736
aI207
aI140
aI140
aNaI0
aI0
aI0
aI255
aI165
aI0
aI2
aI00
ag91
ag92
aaa(lp1047
g10
a(lp1048
I382
aI207
aI140
aI140
aNaI0
aI0
aI0
aI255
aI165
aI0
aI2
aI00
ag91
ag95
aaa(lp1049
g10
a(lp1050
I177
aI544
aI48
aI118
aNaI0
aI0
aI0
aI230
aI230
aI250
aI1
aI00
ag52
ag98
aaassI23
(dp1051
g100
(lp1052
I0
asg102
g6
sg103
(lp1053
(lp1054
g10
a(lp1055
I104
aI588
aI40
aI35
aNaI0
aI0
aI0
aI255
aI0
aI0
aI2
aI00
ag26
ag27
aaa(lp1056
g10
a(lp1057
I155
aI572
aI99
aI94
ag157
aI0
aI0
aI0
aI30
aI144
aI255
aI2
aI00
ag31
ag32
aaa(lp1058
g10
a(lp1059
I393
aI272
aI60
aI60
aNaI0
aI0
aI0
aI230
aI230
aI250
aI2
aI00
ag12
ag35
aaa(lp1060
g10
a(lp1061
I307
aI250
aI60
aI58
ag113
aI0
aI0
aI0
aI165
aI42
aI42
aI2
aI00
ag39
ag40
aaa(lp1062
g10
a(lp1063
I392
aI226
aI60
aI60
aNaI0
aI0
aI0
aI230
aI230
aI250
aI2
aI00
ag12
ag43
aaa(lp1064
g10
a(lp1065
I752
aI219
aI60
aI60
aNaI0
aI0
aI0
aI230
aI230
aI250
aI2
aI00
ag12
ag118
aaa(lp1066
g10
a(lp1067
I798
aI219
aI60
aI60
aNaI0
aI0
aI0
aI230
aI230
aI250
aI2
aI00
ag12
ag121
aaa(lp1068
g10
a(lp1069
I895
aI218
aI48
aI118
aNaI0
aI0
aI0
aI230
aI230
aI250
aI1
aI00
ag52
ag53
aaa(lp1070
g10
a(lp1071
I671
aI214
aI48
aI118
aNaI0
aI0
aI0
aI230
aI230
aI250
aI1
aI00
ag52
ag56
aaa(lp1072
g10
a(lp1073
I392
aI144
aI118
aI48
aNaI0
aI0
aI0
aI230
aI230
aI250
aI1
aI00
ag52
ag59
aaa(lp1074
g10
a(lp1075
I390
aI358
aI118
aI48
aNaI0
aI0
aI0
aI230
aI230
aI250
aI1
aI00
ag52
ag62
aaa(lp1076
g10
a(lp1077
I757
aI358
aI101
aI63
ag65
aI0
aI0
aI0
aI160
aI32
aI240
aI2
aI00
ag66
ag67
aaa(lp1078
g10
a(lp1079
I757
aI130
aI101
aI63
ag30
aI0
aI0
aI0
aI160
aI32
aI240
aI2
aI00
ag66
ag70
aaa(lp1080
g10
a(lp1081
I535
aI230
aI63
aI101
ag73
aI0
aI0
aI0
aI160
aI32
aI240
aI2
aI00
ag66
ag74
aaa(lp1082
g10
a(lp1083
I304
aI225
aI63
aI101
ag77
aI0
aI0
aI0
aI160
aI32
aI240
aI2
aI00
ag66
ag78
aaa(lp1084
g10
a(lp1085
I75
aI576
aI60
aI150
aNaI0
aI0
aI0
aI215
aI253
aI254
aI2
aI00
ag52
ag81
aaa(lp1086
g10
a(lp1087
I74
aI485
aI60
aI150
aNaI0
aI0
aI0
aI215
aI253
aI254
aI2
aI00
ag52
ag84
aaa(lp1088
g10
a(lp1089
I11
aI464
aI140
aI280
aNaI0
aI0
aI0
aI144
aI238
aI144
aI2
aI00
ag87
ag88
aaa(lp1090
g10
a(lp1091
I736
aI207
aI140
aI140
aNaI0
aI0
aI0
aI255
aI165
aI0
aI2
aI00
ag91
ag92
aaa(lp1092
g10
a(lp1093
I382
aI207
aI140
aI140
aNaI0
aI0
aI0
aI255
aI165
aI0
aI2
aI00
ag91
ag95
aaa(lp1094
g10
a(lp1095
I177
aI544
aI48
aI118
aNaI0
aI0
aI0
aI230
aI230
aI250
aI1
aI00
ag52
ag98
aaassI24
(dp1096
g100
(lp1097
I0
asg102
g6
sg103
(lp1098
(lp1099
g10
a(lp1100
I103
aI588
aI40
aI35
aNaI0
aI0
aI0
aI255
aI0
aI0
aI2
aI00
ag26
ag27
aaa(lp1101
g10
a(lp1102
I155
aI572
aI99
aI94
ag157
aI0
aI0
aI0
aI30
aI144
aI255
aI2
aI00
ag31
ag32
aaa(lp1103
g10
a(lp1104
I393
aI272
aI60
aI60
aNaI0
aI0
aI0
aI230
aI230
aI250
aI2
aI00
ag12
ag35
aaa(lp1105
g10
a(lp1106
I307
aI250
aI60
aI58
ag113
aI0
aI0
aI0
aI165
aI42
aI42
aI2
aI00
ag39
ag40
aaa(lp1107
g10
a(lp1108
I392
aI226
aI60
aI60
aNaI0
aI0
aI0
aI230
aI230
aI250
aI2
aI00
ag12
ag43
aaa(lp1109
g10
a(lp1110
I752
aI219
aI60
aI60
aNaI0
aI0
aI0
aI230
aI230
aI250
aI2
aI00
ag12
ag118
aaa(lp1111
g10
a(lp1112
I798
aI219
aI60
aI60
aNaI0
aI0
aI0
aI230
aI230
aI250
aI2
aI00
ag12
ag121
aaa(lp1113
g10
a(lp1114
I895
aI218
aI48
aI118
aNaI0
aI0
aI0
aI230
aI230
aI250
aI1
aI00
ag52
ag53
aaa(lp1115
g10
a(lp1116
I671
aI214
aI48
aI118
aNaI0
aI0
aI0
aI230
aI230
aI250
aI1
aI00
ag52
ag56
aaa(lp1117
g10
a(lp1118
I392
aI144
aI118
aI48
aNaI0
aI0
aI0
aI230
aI230
aI250
aI1
aI00
ag52
ag59
aaa(lp1119
g10
a(lp1120
I390
aI358
aI118
aI48
aNaI0
aI0
aI0
aI230
aI230
aI250
aI1
aI00
ag52
ag62
aaa(lp1121
g10
a(lp1122
I757
aI358
aI101
aI63
ag65
aI0
aI0
aI0
aI160
aI32
aI240
aI2
aI00
ag66
ag67
aaa(lp1123
g10
a(lp1124
I757
aI130
aI101
aI63
ag30
aI0
aI0
aI0
aI160
aI32
aI240
aI2
aI00
ag66
ag70
aaa(lp1125
g10
a(lp1126
I535
aI230
aI63
aI101
ag73
aI0
aI0
aI0
aI160
aI32
aI240
aI2
aI00
ag66
ag74
aaa(lp1127
g10
a(lp1128
I304
aI225
aI63
aI101
ag77
aI0
aI0
aI0
aI160
aI32
aI240
aI2
aI00
ag66
ag78
aaa(lp1129
g10
a(lp1130
I75
aI576
aI60
aI150
aNaI0
aI0
aI0
aI215
aI253
aI254
aI2
aI00
ag52
ag81
aaa(lp1131
g10
a(lp1132
I74
aI485
aI60
aI150
aNaI0
aI0
aI0
aI215
aI253
aI254
aI2
aI00
ag52
ag84
aaa(lp1133
g10
a(lp1134
I11
aI464
aI140
aI280
aNaI0
aI0
aI0
aI144
aI238
aI144
aI2
aI00
ag87
ag88
aaa(lp1135
g10
a(lp1136
I736
aI207
aI140
aI140
aNaI0
aI0
aI0
aI255
aI165
aI0
aI2
aI00
ag91
ag92
aaa(lp1137
g10
a(lp1138
I382
aI207
aI140
aI140
aNaI0
aI0
aI0
aI255
aI165
aI0
aI2
aI00
ag91
ag95
aaa(lp1139
g10
a(lp1140
I177
aI544
aI48
aI118
aNaI0
aI0
aI0
aI230
aI230
aI250
aI1
aI00
ag52
ag98
aaassI25
(dp1141
g100
(lp1142
I0
asg102
g6
sg103
(lp1143
(lp1144
g10
a(lp1145
I103
aI588
aI40
aI35
aNaI0
aI0
aI0
aI255
aI0
aI0
aI2
aI00
ag26
ag27
aaa(lp1146
g10
a(lp1147
I155
aI572
aI99
aI94
ag157
aI0
aI0
aI0
aI30
aI144
aI255
aI2
aI00
ag31
ag32
aaa(lp1148
g10
a(lp1149
I393
aI272
aI60
aI60
aNaI0
aI0
aI0
aI230
aI230
aI250
aI2
aI00
ag12
ag35
aaa(lp1150
g10
a(lp1151
I307
aI250
aI60
aI58
ag113
aI0
aI0
aI0
aI165
aI42
aI42
aI2
aI00
ag39
ag40
aaa(lp1152
g10
a(lp1153
I392
aI226
aI60
aI60
aNaI0
aI0
aI0
aI230
aI230
aI250
aI2
aI00
ag12
ag43
aaa(lp1154
g10
a(lp1155
I752
aI219
aI60
aI60
aNaI0
aI0
aI0
aI230
aI230
aI250
aI2
aI00
ag12
ag118
aaa(lp1156
g10
a(lp1157
I798
aI219
aI60
aI60
aNaI0
aI0
aI0
aI230
aI230
aI250
aI2
aI00
ag12
ag121
aaa(lp1158
g10
a(lp1159
I895
aI218
aI48
aI118
aNaI0
aI0
aI0
aI230
aI230
aI250
aI1
aI00
ag52
ag53
aaa(lp1160
g10
a(lp1161
I671
aI214
aI48
aI118
aNaI0
aI0
aI0
aI230
aI230
aI250
aI1
aI00
ag52
ag56
aaa(lp1162
g10
a(lp1163
I392
aI144
aI118
aI48
aNaI0
aI0
aI0
aI230
aI230
aI250
aI1
aI00
ag52
ag59
aaa(lp1164
g10
a(lp1165
I390
aI358
aI118
aI48
aNaI0
aI0
aI0
aI230
aI230
aI250
aI1
aI00
ag52
ag62
aaa(lp1166
g10
a(lp1167
I757
aI358
aI101
aI63
ag65
aI0
aI0
aI0
aI160
aI32
aI240
aI2
aI00
ag66
ag67
aaa(lp1168
g10
a(lp1169
I757
aI130
aI101
aI63
ag30
aI0
aI0
aI0
aI160
aI32
aI240
aI2
aI00
ag66
ag70
aaa(lp1170
g10
a(lp1171
I535
aI230
aI63
aI101
ag73
aI0
aI0
aI0
aI160
aI32
aI240
aI2
aI00
ag66
ag74
aaa(lp1172
g10
a(lp1173
I304
aI225
aI63
aI101
ag77
aI0
aI0
aI0
aI160
aI32
aI240
aI2
aI00
ag66
ag78
aaa(lp1174
g10
a(lp1175
I75
aI576
aI60
aI150
aNaI0
aI0
aI0
aI215
aI253
aI254
aI2
aI00
ag52
ag81
aaa(lp1176
g10
a(lp1177
I74
aI485
aI60
aI150
aNaI0
aI0
aI0
aI215
aI253
aI254
aI2
aI00
ag52
ag84
aaa(lp1178
g10
a(lp1179
I11
aI464
aI140
aI280
aNaI0
aI0
aI0
aI144
aI238
aI144
aI2
aI00
ag87
ag88
aaa(lp1180
g10
a(lp1181
I736
aI207
aI140
aI140
aNaI0
aI0
aI0
aI255
aI165
aI0
aI2
aI00
ag91
ag92
aaa(lp1182
g10
a(lp1183
I382
aI207
aI140
aI140
aNaI0
aI0
aI0
aI255
aI165
aI0
aI2
aI00
ag91
ag95
aaa(lp1184
g10
a(lp1185
I177
aI544
aI48
aI118
aNaI0
aI0
aI0
aI230
aI230
aI250
aI1
aI00
ag52
ag98
aaassI26
(dp1186
g100
(lp1187
I1
asg102
g6
sg103
(lp1188
(lp1189
g10
a(lp1190
I103
aI588
aI40
aI35
aNaI0
aI0
aI0
aI255
aI0
aI0
aI2
aI00
ag26
ag27
aaa(lp1191
g10
a(lp1192
I155
aI572
aI99
aI94
ag157
aI0
aI0
aI0
aI30
aI144
aI255
aI2
aI00
ag31
ag32
aaa(lp1193
g10
a(lp1194
I393
aI272
aI60
aI60
aNaI0
aI0
aI0
aI230
aI230
aI250
aI2
aI00
ag12
ag35
aaa(lp1195
g10
a(lp1196
I307
aI250
aI60
aI58
ag113
aI0
aI0
aI0
aI165
aI42
aI42
aI2
aI00
ag39
ag40
aaa(lp1197
g10
a(lp1198
I392
aI226
aI60
aI60
aNaI0
aI0
aI0
aI230
aI230
aI250
aI2
aI00
ag12
ag43
aaa(lp1199
g10
a(lp1200
I752
aI219
aI60
aI60
aNaI0
aI0
aI0
aI230
aI230
aI250
aI2
aI00
ag12
ag118
aaa(lp1201
g10
a(lp1202
I798
aI219
aI60
aI60
aNaI0
aI0
aI0
aI230
aI230
aI250
aI2
aI00
ag12
ag121
aaa(lp1203
g10
a(lp1204
I895
aI218
aI48
aI118
aNaI0
aI0
aI0
aI230
aI230
aI250
aI1
aI00
ag52
ag53
aaa(lp1205
g10
a(lp1206
I671
aI214
aI48
aI118
aNaI0
aI0
aI0
aI230
aI230
aI250
aI1
aI00
ag52
ag56
aaa(lp1207
g10
a(lp1208
I392
aI144
aI118
aI48
aNaI0
aI0
aI0
aI230
aI230
aI250
aI1
aI00
ag52
ag59
aaa(lp1209
g10
a(lp1210
I390
aI358
aI118
aI48
aNaI0
aI0
aI0
aI230
aI230
aI250
aI1
aI00
ag52
ag62
aaa(lp1211
g10
a(lp1212
I757
aI358
aI101
aI63
ag65
aI0
aI0
aI0
aI160
aI32
aI240
aI2
aI00
ag66
ag67
aaa(lp1213
g10
a(lp1214
I757
aI130
aI101
aI63
ag30
aI0
aI0
aI0
aI160
aI32
aI240
aI2
aI00
ag66
ag70
aaa(lp1215
g10
a(lp1216
I535
aI230
aI63
aI101
ag73
aI0
aI0
aI0
aI160
aI32
aI240
aI2
aI00
ag66
ag74
aaa(lp1217
g10
a(lp1218
I304
aI225
aI63
aI101
ag77
aI0
aI0
aI0
aI160
aI32
aI240
aI2
aI00
ag66
ag78
aaa(lp1219
g10
a(lp1220
I75
aI576
aI60
aI150
aNaI0
aI0
aI0
aI215
aI253
aI254
aI2
aI00
ag52
ag81
aaa(lp1221
g10
a(lp1222
I74
aI485
aI60
aI150
aNaI0
aI0
aI0
aI215
aI253
aI254
aI2
aI00
ag52
ag84
aaa(lp1223
g10
a(lp1224
I11
aI464
aI140
aI280
aNaI0
aI0
aI0
aI144
aI238
aI144
aI2
aI00
ag87
ag88
aaa(lp1225
g10
a(lp1226
I736
aI207
aI140
aI140
aNaI0
aI0
aI0
aI255
aI165
aI0
aI2
aI00
ag91
ag92
aaa(lp1227
g10
a(lp1228
I382
aI207
aI140
aI140
aNaI0
aI0
aI0
aI255
aI165
aI0
aI2
aI00
ag91
ag95
aaa(lp1229
g10
a(lp1230
I177
aI544
aI48
aI118
aNaI0
aI0
aI0
aI230
aI230
aI250
aI1
aI00
ag52
ag98
aaassI27
(dp1231
g100
(lp1232
I1
asg102
g6
sg103
(lp1233
(lp1234
g10
a(lp1235
I103
aI588
aI40
aI35
aNaI0
aI0
aI0
aI255
aI0
aI0
aI2
aI00
ag26
ag27
aaa(lp1236
g10
a(lp1237
I155
aI572
aI99
aI94
ag157
aI0
aI0
aI0
aI30
aI144
aI255
aI2
aI00
ag31
ag32
aaa(lp1238
g10
a(lp1239
I393
aI272
aI60
aI60
aNaI0
aI0
aI0
aI230
aI230
aI250
aI2
aI00
ag12
ag35
aaa(lp1240
g10
a(lp1241
I307
aI250
aI60
aI58
ag113
aI0
aI0
aI0
aI165
aI42
aI42
aI2
aI00
ag39
ag40
aaa(lp1242
g10
a(lp1243
I392
aI226
aI60
aI60
aNaI0
aI0
aI0
aI230
aI230
aI250
aI2
aI00
ag12
ag43
aaa(lp1244
g10
a(lp1245
I752
aI219
aI60
aI60
aNaI0
aI0
aI0
aI230
aI230
aI250
aI2
aI00
ag12
ag118
aaa(lp1246
g10
a(lp1247
I798
aI219
aI60
aI60
aNaI0
aI0
aI0
aI230
aI230
aI250
aI2
aI00
ag12
ag121
aaa(lp1248
g10
a(lp1249
I895
aI218
aI48
aI118
aNaI0
aI0
aI0
aI230
aI230
aI250
aI1
aI00
ag52
ag53
aaa(lp1250
g10
a(lp1251
I671
aI214
aI48
aI118
aNaI0
aI0
aI0
aI230
aI230
aI250
aI1
aI00
ag52
ag56
aaa(lp1252
g10
a(lp1253
I392
aI144
aI118
aI48
aNaI0
aI0
aI0
aI230
aI230
aI250
aI1
aI00
ag52
ag59
aaa(lp1254
g10
a(lp1255
I390
aI358
aI118
aI48
aNaI0
aI0
aI0
aI230
aI230
aI250
aI1
aI00
ag52
ag62
aaa(lp1256
g10
a(lp1257
I757
aI358
aI101
aI63
ag65
aI0
aI0
aI0
aI160
aI32
aI240
aI2
aI00
ag66
ag67
aaa(lp1258
g10
a(lp1259
I757
aI130
aI101
aI63
ag30
aI0
aI0
aI0
aI160
aI32
aI240
aI2
aI00
ag66
ag70
aaa(lp1260
g10
a(lp1261
I535
aI230
aI63
aI101
ag73
aI0
aI0
aI0
aI160
aI32
aI240
aI2
aI00
ag66
ag74
aaa(lp1262
g10
a(lp1263
I304
aI225
aI63
aI101
ag77
aI0
aI0
aI0
aI160
aI32
aI240
aI2
aI00
ag66
ag78
aaa(lp1264
g10
a(lp1265
I75
aI576
aI60
aI150
aNaI0
aI0
aI0
aI215
aI253
aI254
aI2
aI00
ag52
ag81
aaa(lp1266
g10
a(lp1267
I74
aI485
aI60
aI150
aNaI0
aI0
aI0
aI215
aI253
aI254
aI2
aI00
ag52
ag84
aaa(lp1268
g10
a(lp1269
I11
aI464
aI140
aI280
aNaI0
aI0
aI0
aI144
aI238
aI144
aI2
aI00
ag87
ag88
aaa(lp1270
g10
a(lp1271
I736
aI207
aI140
aI140
aNaI0
aI0
aI0
aI255
aI165
aI0
aI2
aI00
ag91
ag92
aaa(lp1272
g10
a(lp1273
I382
aI207
aI140
aI140
aNaI0
aI0
aI0
aI255
aI165
aI0
aI2
aI00
ag91
ag95
aaa(lp1274
g10
a(lp1275
I177
aI544
aI48
aI118
aNaI0
aI0
aI0
aI230
aI230
aI250
aI1
aI00
ag52
ag98
aaassI28
(dp1276
g100
(lp1277
I1
asg102
g6
sg103
(lp1278
(lp1279
g10
a(lp1280
I103
aI588
aI40
aI35
aNaI0
aI0
aI0
aI255
aI0
aI0
aI2
aI00
ag26
ag27
aaa(lp1281
g10
a(lp1282
I155
aI572
aI99
aI94
aS'UP'
p1283
aI0
aI0
aI0
aI30
aI144
aI255
aI2
aI00
ag31
ag32
aaa(lp1284
g10
a(lp1285
I393
aI272
aI60
aI60
aNaI0
aI0
aI0
aI230
aI230
aI250
aI2
aI00
ag12
ag35
aaa(lp1286
g10
a(lp1287
I307
aI250
aI60
aI58
ag113
aI0
aI0
aI0
aI165
aI42
aI42
aI2
aI00
ag39
ag40
aaa(lp1288
g10
a(lp1289
I392
aI226
aI60
aI60
aNaI0
aI0
aI0
aI230
aI230
aI250
aI2
aI00
ag12
ag43
aaa(lp1290
g10
a(lp1291
I752
aI219
aI60
aI60
aNaI0
aI0
aI0
aI230
aI230
aI250
aI2
aI00
ag12
ag118
aaa(lp1292
g10
a(lp1293
I798
aI219
aI60
aI60
aNaI0
aI0
aI0
aI230
aI230
aI250
aI2
aI00
ag12
ag121
aaa(lp1294
g10
a(lp1295
I895
aI218
aI48
aI118
aNaI0
aI0
aI0
aI230
aI230
aI250
aI1
aI00
ag52
ag53
aaa(lp1296
g10
a(lp1297
I671
aI214
aI48
aI118
aNaI0
aI0
aI0
aI230
aI230
aI250
aI1
aI00
ag52
ag56
aaa(lp1298
g10
a(lp1299
I392
aI144
aI118
aI48
aNaI0
aI0
aI0
aI230
aI230
aI250
aI1
aI00
ag52
ag59
aaa(lp1300
g10
a(lp1301
I390
aI358
aI118
aI48
aNaI0
aI0
aI0
aI230
aI230
aI250
aI1
aI00
ag52
ag62
aaa(lp1302
g10
a(lp1303
I757
aI358
aI101
aI63
ag65
aI0
aI0
aI0
aI160
aI32
aI240
aI2
aI00
ag66
ag67
aaa(lp1304
g10
a(lp1305
I757
aI130
aI101
aI63
ag30
aI0
aI0
aI0
aI160
aI32
aI240
aI2
aI00
ag66
ag70
aaa(lp1306
g10
a(lp1307
I535
aI230
aI63
aI101
ag73
aI0
aI0
aI0
aI160
aI32
aI240
aI2
aI00
ag66
ag74
aaa(lp1308
g10
a(lp1309
I304
aI225
aI63
aI101
ag77
aI0
aI0
aI0
aI160
aI32
aI240
aI2
aI00
ag66
ag78
aaa(lp1310
g10
a(lp1311
I75
aI576
aI60
aI150
aNaI0
aI0
aI0
aI215
aI253
aI254
aI2
aI00
ag52
ag81
aaa(lp1312
g10
a(lp1313
I74
aI485
aI60
aI150
aNaI0
aI0
aI0
aI215
aI253
aI254
aI2
aI00
ag52
ag84
aaa(lp1314
g10
a(lp1315
I11
aI464
aI140
aI280
aNaI0
aI0
aI0
aI144
aI238
aI144
aI2
aI00
ag87
ag88
aaa(lp1316
g10
a(lp1317
I736
aI207
aI140
aI140
aNaI0
aI0
aI0
aI255
aI165
aI0
aI2
aI00
ag91
ag92
aaa(lp1318
g10
a(lp1319
I382
aI207
aI140
aI140
aNaI0
aI0
aI0
aI255
aI165
aI0
aI2
aI00
ag91
ag95
aaa(lp1320
g10
a(lp1321
I177
aI544
aI48
aI118
aNaI0
aI0
aI0
aI230
aI230
aI250
aI1
aI00
ag52
ag98
aaassI29
(dp1322
g100
(lp1323
I1
asg102
g6
sg103
(lp1324
(lp1325
g10
a(lp1326
I103
aI588
aI40
aI35
aNaI0
aI0
aI0
aI255
aI0
aI0
aI2
aI00
ag26
ag27
aaa(lp1327
g10
a(lp1328
I155
aI572
aI99
aI94
ag1283
aI0
aI0
aI0
aI30
aI144
aI255
aI2
aI00
ag31
ag32
aaa(lp1329
g10
a(lp1330
I393
aI272
aI60
aI60
aNaI0
aI0
aI0
aI230
aI230
aI250
aI2
aI00
ag12
ag35
aaa(lp1331
g10
a(lp1332
I307
aI250
aI60
aI58
ag113
aI0
aI0
aI0
aI165
aI42
aI42
aI2
aI00
ag39
ag40
aaa(lp1333
g10
a(lp1334
I392
aI226
aI60
aI60
aNaI0
aI0
aI0
aI230
aI230
aI250
aI2
aI00
ag12
ag43
aaa(lp1335
g10
a(lp1336
I752
aI219
aI60
aI60
aNaI0
aI0
aI0
aI230
aI230
aI250
aI2
aI00
ag12
ag118
aaa(lp1337
g10
a(lp1338
I798
aI219
aI60
aI60
aNaI0
aI0
aI0
aI230
aI230
aI250
aI2
aI00
ag12
ag121
aaa(lp1339
g10
a(lp1340
I895
aI218
aI48
aI118
aNaI0
aI0
aI0
aI230
aI230
aI250
aI1
aI00
ag52
ag53
aaa(lp1341
g10
a(lp1342
I671
aI214
aI48
aI118
aNaI0
aI0
aI0
aI230
aI230
aI250
aI1
aI00
ag52
ag56
aaa(lp1343
g10
a(lp1344
I392
aI144
aI118
aI48
aNaI0
aI0
aI0
aI230
aI230
aI250
aI1
aI00
ag52
ag59
aaa(lp1345
g10
a(lp1346
I390
aI358
aI118
aI48
aNaI0
aI0
aI0
aI230
aI230
aI250
aI1
aI00
ag52
ag62
aaa(lp1347
g10
a(lp1348
I757
aI358
aI101
aI63
ag65
aI0
aI0
aI0
aI160
aI32
aI240
aI2
aI00
ag66
ag67
aaa(lp1349
g10
a(lp1350
I757
aI130
aI101
aI63
ag30
aI0
aI0
aI0
aI160
aI32
aI240
aI2
aI00
ag66
ag70
aaa(lp1351
g10
a(lp1352
I535
aI230
aI63
aI101
ag73
aI0
aI0
aI0
aI160
aI32
aI240
aI2
aI00
ag66
ag74
aaa(lp1353
g10
a(lp1354
I304
aI225
aI63
aI101
ag77
aI0
aI0
aI0
aI160
aI32
aI240
aI2
aI00
ag66
ag78
aaa(lp1355
g10
a(lp1356
I75
aI576
aI60
aI150
aNaI0
aI0
aI0
aI215
aI253
aI254
aI2
aI00
ag52
ag81
aaa(lp1357
g10
a(lp1358
I74
aI485
aI60
aI150
aNaI0
aI0
aI0
aI215
aI253
aI254
aI2
aI00
ag52
ag84
aaa(lp1359
g10
a(lp1360
I11
aI464
aI140
aI280
aNaI0
aI0
aI0
aI144
aI238
aI144
aI2
aI00
ag87
ag88
aaa(lp1361
g10
a(lp1362
I736
aI207
aI140
aI140
aNaI0
aI0
aI0
aI255
aI165
aI0
aI2
aI00
ag91
ag92
aaa(lp1363
g10
a(lp1364
I382
aI207
aI140
aI140
aNaI0
aI0
aI0
aI255
aI165
aI0
aI2
aI00
ag91
ag95
aaa(lp1365
g10
a(lp1366
I177
aI544
aI48
aI118
aNaI0
aI0
aI0
aI230
aI230
aI250
aI1
aI00
ag52
ag98
aaassI30
(dp1367
g100
(lp1368
I1
asg102
g6
sg103
(lp1369
(lp1370
g10
a(lp1371
I103
aI588
aI40
aI35
aNaI0
aI0
aI0
aI255
aI0
aI0
aI2
aI00
ag26
ag27
aaa(lp1372
g10
a(lp1373
I155
aI572
aI99
aI94
ag1283
aI0
aI0
aI0
aI30
aI144
aI255
aI2
aI00
ag31
ag32
aaa(lp1374
g10
a(lp1375
I393
aI272
aI60
aI60
aNaI0
aI0
aI0
aI230
aI230
aI250
aI2
aI00
ag12
ag35
aaa(lp1376
g10
a(lp1377
I307
aI250
aI60
aI58
ag113
aI0
aI0
aI0
aI165
aI42
aI42
aI2
aI00
ag39
ag40
aaa(lp1378
g10
a(lp1379
I392
aI226
aI60
aI60
aNaI0
aI0
aI0
aI230
aI230
aI250
aI2
aI00
ag12
ag43
aaa(lp1380
g10
a(lp1381
I752
aI219
aI60
aI60
aNaI0
aI0
aI0
aI230
aI230
aI250
aI2
aI00
ag12
ag118
aaa(lp1382
g10
a(lp1383
I798
aI219
aI60
aI60
aNaI0
aI0
aI0
aI230
aI230
aI250
aI2
aI00
ag12
ag121
aaa(lp1384
g10
a(lp1385
I895
aI218
aI48
aI118
aNaI0
aI0
aI0
aI230
aI230
aI250
aI1
aI00
ag52
ag53
aaa(lp1386
g10
a(lp1387
I671
aI214
aI48
aI118
aNaI0
aI0
aI0
aI230
aI230
aI250
aI1
aI00
ag52
ag56
aaa(lp1388
g10
a(lp1389
I392
aI144
aI118
aI48
aNaI0
aI0
aI0
aI230
aI230
aI250
aI1
aI00
ag52
ag59
aaa(lp1390
g10
a(lp1391
I390
aI358
aI118
aI48
aNaI0
aI0
aI0
aI230
aI230
aI250
aI1
aI00
ag52
ag62
aaa(lp1392
g10
a(lp1393
I757
aI358
aI101
aI63
ag65
aI0
aI0
aI0
aI160
aI32
aI240
aI2
aI00
ag66
ag67
aaa(lp1394
g10
a(lp1395
I757
aI130
aI101
aI63
ag30
aI0
aI0
aI0
aI160
aI32
aI240
aI2
aI00
ag66
ag70
aaa(lp1396
g10
a(lp1397
I535
aI230
aI63
aI101
ag73
aI0
aI0
aI0
aI160
aI32
aI240
aI2
aI00
ag66
ag74
aaa(lp1398
g10
a(lp1399
I304
aI225
aI63
aI101
ag77
aI0
aI0
aI0
aI160
aI32
aI240
aI2
aI00
ag66
ag78
aaa(lp1400
g10
a(lp1401
I75
aI576
aI60
aI150
aNaI0
aI0
aI0
aI215
aI253
aI254
aI2
aI00
ag52
ag81
aaa(lp1402
g10
a(lp1403
I74
aI485
aI60
aI150
aNaI0
aI0
aI0
aI215
aI253
aI254
aI2
aI00
ag52
ag84
aaa(lp1404
g10
a(lp1405
I11
aI464
aI140
aI280
aNaI0
aI0
aI0
aI144
aI238
aI144
aI2
aI00
ag87
ag88
aaa(lp1406
g10
a(lp1407
I736
aI207
aI140
aI140
aNaI0
aI0
aI0
aI255
aI165
aI0
aI2
aI00
ag91
ag92
aaa(lp1408
g10
a(lp1409
I382
aI207
aI140
aI140
aNaI0
aI0
aI0
aI255
aI165
aI0
aI2
aI00
ag91
ag95
aaa(lp1410
g10
a(lp1411
I177
aI544
aI48
aI118
aNaI0
aI0
aI0
aI230
aI230
aI250
aI1
aI00
ag52
ag98
aaassI31
(dp1412
g100
(lp1413
I1
asg102
g6
sg103
(lp1414
(lp1415
g10
a(lp1416
I103
aI588
aI40
aI35
aNaI0
aI0
aI0
aI255
aI0
aI0
aI2
aI00
ag26
ag27
aaa(lp1417
g10
a(lp1418
I155
aI572
aI99
aI94
ag1283
aI0
aI0
aI0
aI30
aI144
aI255
aI2
aI00
ag31
ag32
aaa(lp1419
g10
a(lp1420
I393
aI272
aI60
aI60
aNaI0
aI0
aI0
aI230
aI230
aI250
aI2
aI00
ag12
ag35
aaa(lp1421
g10
a(lp1422
I307
aI250
aI60
aI58
ag113
aI0
aI0
aI0
aI165
aI42
aI42
aI2
aI00
ag39
ag40
aaa(lp1423
g10
a(lp1424
I392
aI226
aI60
aI60
aNaI0
aI0
aI0
aI230
aI230
aI250
aI2
aI00
ag12
ag43
aaa(lp1425
g10
a(lp1426
I752
aI219
aI60
aI60
aNaI0
aI0
aI0
aI230
aI230
aI250
aI2
aI00
ag12
ag118
aaa(lp1427
g10
a(lp1428
I798
aI219
aI60
aI60
aNaI0
aI0
aI0
aI230
aI230
aI250
aI2
aI00
ag12
ag121
aaa(lp1429
g10
a(lp1430
I895
aI218
aI48
aI118
aNaI0
aI0
aI0
aI230
aI230
aI250
aI1
aI00
ag52
ag53
aaa(lp1431
g10
a(lp1432
I671
aI214
aI48
aI118
aNaI0
aI0
aI0
aI230
aI230
aI250
aI1
aI00
ag52
ag56
aaa(lp1433
g10
a(lp1434
I392
aI144
aI118
aI48
aNaI0
aI0
aI0
aI230
aI230
aI250
aI1
aI00
ag52
ag59
aaa(lp1435
g10
a(lp1436
I390
aI358
aI118
aI48
aNaI0
aI0
aI0
aI230
aI230
aI250
aI1
aI00
ag52
ag62
aaa(lp1437
g10
a(lp1438
I757
aI358
aI101
aI63
ag65
aI0
aI0
aI0
aI160
aI32
aI240
aI2
aI00
ag66
ag67
aaa(lp1439
g10
a(lp1440
I757
aI130
aI101
aI63
ag30
aI0
aI0
aI0
aI160
aI32
aI240
aI2
aI00
ag66
ag70
aaa(lp1441
g10
a(lp1442
I535
aI230
aI63
aI101
ag73
aI0
aI0
aI0
aI160
aI32
aI240
aI2
aI00
ag66
ag74
aaa(lp1443
g10
a(lp1444
I304
aI225
aI63
aI101
ag77
aI0
aI0
aI0
aI160
aI32
aI240
aI2
aI00
ag66
ag78
aaa(lp1445
g10
a(lp1446
I75
aI576
aI60
aI150
aNaI0
aI0
aI0
aI215
aI253
aI254
aI2
aI00
ag52
ag81
aaa(lp1447
g10
a(lp1448
I74
aI485
aI60
aI150
aNaI0
aI0
aI0
aI215
aI253
aI254
aI2
aI00
ag52
ag84
aaa(lp1449
g10
a(lp1450
I11
aI464
aI140
aI280
aNaI0
aI0
aI0
aI144
aI238
aI144
aI2
aI00
ag87
ag88
aaa(lp1451
g10
a(lp1452
I736
aI207
aI140
aI140
aNaI0
aI0
aI0
aI255
aI165
aI0
aI2
aI00
ag91
ag92
aaa(lp1453
g10
a(lp1454
I382
aI207
aI140
aI140
aNaI0
aI0
aI0
aI255
aI165
aI0
aI2
aI00
ag91
ag95
aaa(lp1455
g10
a(lp1456
I177
aI544
aI48
aI118
aNaI0
aI0
aI0
aI230
aI230
aI250
aI1
aI00
ag52
ag98
aaassI32
(dp1457
g100
(lp1458
I0
aI1
asg102
g6
sg103
(lp1459
(lp1460
g10
a(lp1461
I103
aI588
aI40
aI35
aNaI0
aI0
aI0
aI255
aI0
aI0
aI2
aI00
ag26
ag27
aaa(lp1462
g10
a(lp1463
I155
aI572
aI99
aI94
ag1283
aI0
aI0
aI0
aI30
aI144
aI255
aI2
aI00
ag31
ag32
aaa(lp1464
g10
a(lp1465
I393
aI272
aI60
aI60
aNaI0
aI0
aI0
aI230
aI230
aI250
aI2
aI00
ag12
ag35
aaa(lp1466
g10
a(lp1467
I307
aI250
aI60
aI58
ag113
aI0
aI0
aI0
aI165
aI42
aI42
aI2
aI00
ag39
ag40
aaa(lp1468
g10
a(lp1469
I392
aI226
aI60
aI60
aNaI0
aI0
aI0
aI230
aI230
aI250
aI2
aI00
ag12
ag43
aaa(lp1470
g10
a(lp1471
I752
aI219
aI60
aI60
aNaI0
aI0
aI0
aI230
aI230
aI250
aI2
aI00
ag12
ag118
aaa(lp1472
g10
a(lp1473
I798
aI219
aI60
aI60
aNaI0
aI0
aI0
aI230
aI230
aI250
aI2
aI00
ag12
ag121
aaa(lp1474
g10
a(lp1475
I895
aI218
aI48
aI118
aNaI0
aI0
aI0
aI230
aI230
aI250
aI1
aI00
ag52
ag53
aaa(lp1476
g10
a(lp1477
I671
aI214
aI48
aI118
aNaI0
aI0
aI0
aI230
aI230
aI250
aI1
aI00
ag52
ag56
aaa(lp1478
g10
a(lp1479
I392
aI144
aI118
aI48
aNaI0
aI0
aI0
aI230
aI230
aI250
aI1
aI00
ag52
ag59
aaa(lp1480
g10
a(lp1481
I390
aI358
aI118
aI48
aNaI0
aI0
aI0
aI230
aI230
aI250
aI1
aI00
ag52
ag62
aaa(lp1482
g10
a(lp1483
I757
aI358
aI101
aI63
ag65
aI0
aI0
aI0
aI160
aI32
aI240
aI2
aI00
ag66
ag67
aaa(lp1484
g10
a(lp1485
I757
aI130
aI101
aI63
ag30
aI0
aI0
aI0
aI160
aI32
aI240
aI2
aI00
ag66
ag70
aaa(lp1486
g10
a(lp1487
I535
aI230
aI63
aI101
ag73
aI0
aI0
aI0
aI160
aI32
aI240
aI2
aI00
ag66
ag74
aaa(lp1488
g10
a(lp1489
I304
aI225
aI63
aI101
ag77
aI0
aI0
aI0
aI160
aI32
aI240
aI2
aI00
ag66
ag78
aaa(lp1490
g10
a(lp1491
I75
aI576
aI60
aI150
aNaI0
aI0
aI0
aI215
aI253
aI254
aI2
aI00
ag52
ag81
aaa(lp1492
g10
a(lp1493
I74
aI485
aI60
aI150
aNaI0
aI0
aI0
aI215
aI253
aI254
aI2
aI00
ag52
ag84
aaa(lp1494
g10
a(lp1495
I11
aI464
aI140
aI280
aNaI0
aI0
aI0
aI144
aI238
aI144
aI2
aI00
ag87
ag88
aaa(lp1496
g10
a(lp1497
I736
aI207
aI140
aI140
aNaI0
aI0
aI0
aI255
aI165
aI0
aI2
aI00
ag91
ag92
aaa(lp1498
g10
a(lp1499
I382
aI207
aI140
aI140
aNaI0
aI0
aI0
aI255
aI165
aI0
aI2
aI00
ag91
ag95
aaa(lp1500
g10
a(lp1501
I177
aI544
aI48
aI118
aNaI0
aI0
aI0
aI230
aI230
aI250
aI1
aI00
ag52
ag98
aaassI33
(dp1502
g100
(lp1503
I0
aI1
asg102
g6
sg103
(lp1504
(lp1505
g10
a(lp1506
I103
aI587
aI40
aI35
aNaI0
aI0
aI0
aI255
aI0
aI0
aI2
aI00
ag26
ag27
aaa(lp1507
g10
a(lp1508
I155
aI571
aI99
aI94
ag1283
aI0
aI0
aI0
aI30
aI144
aI255
aI2
aI00
ag31
ag32
aaa(lp1509
g10
a(lp1510
I393
aI272
aI60
aI60
aNaI0
aI0
aI0
aI230
aI230
aI250
aI2
aI00
ag12
ag35
aaa(lp1511
g10
a(lp1512
I307
aI250
aI60
aI58
ag113
aI0
aI0
aI0
aI165
aI42
aI42
aI2
aI00
ag39
ag40
aaa(lp1513
g10
a(lp1514
I392
aI226
aI60
aI60
aNaI0
aI0
aI0
aI230
aI230
aI250
aI2
aI00
ag12
ag43
aaa(lp1515
g10
a(lp1516
I752
aI219
aI60
aI60
aNaI0
aI0
aI0
aI230
aI230
aI250
aI2
aI00
ag12
ag118
aaa(lp1517
g10
a(lp1518
I798
aI219
aI60
aI60
aNaI0
aI0
aI0
aI230
aI230
aI250
aI2
aI00
ag12
ag121
aaa(lp1519
g10
a(lp1520
I895
aI218
aI48
aI118
aNaI0
aI0
aI0
aI230
aI230
aI250
aI1
aI00
ag52
ag53
aaa(lp1521
g10
a(lp1522
I671
aI214
aI48
aI118
aNaI0
aI0
aI0
aI230
aI230
aI250
aI1
aI00
ag52
ag56
aaa(lp1523
g10
a(lp1524
I392
aI144
aI118
aI48
aNaI0
aI0
aI0
aI230
aI230
aI250
aI1
aI00
ag52
ag59
aaa(lp1525
g10
a(lp1526
I390
aI358
aI118
aI48
aNaI0
aI0
aI0
aI230
aI230
aI250
aI1
aI00
ag52
ag62
aaa(lp1527
g10
a(lp1528
I757
aI358
aI101
aI63
ag65
aI0
aI0
aI0
aI160
aI32
aI240
aI2
aI00
ag66
ag67
aaa(lp1529
g10
a(lp1530
I757
aI130
aI101
aI63
ag30
aI0
aI0
aI0
aI160
aI32
aI240
aI2
aI00
ag66
ag70
aaa(lp1531
g10
a(lp1532
I535
aI230
aI63
aI101
ag73
aI0
aI0
aI0
aI160
aI32
aI240
aI2
aI00
ag66
ag74
aaa(lp1533
g10
a(lp1534
I304
aI225
aI63
aI101
ag77
aI0
aI0
aI0
aI160
aI32
aI240
aI2
aI00
ag66
ag78
aaa(lp1535
g10
a(lp1536
I75
aI576
aI60
aI150
aNaI0
aI0
aI0
aI215
aI253
aI254
aI2
aI00
ag52
ag81
aaa(lp1537
g10
a(lp1538
I74
aI485
aI60
aI150
aNaI0
aI0
aI0
aI215
aI253
aI254
aI2
aI00
ag52
ag84
aaa(lp1539
g10
a(lp1540
I11
aI464
aI140
aI280
aNaI0
aI0
aI0
aI144
aI238
aI144
aI2
aI00
ag87
ag88
aaa(lp1541
g10
a(lp1542
I736
aI207
aI140
aI140
aNaI0
aI0
aI0
aI255
aI165
aI0
aI2
aI00
ag91
ag92
aaa(lp1543
g10
a(lp1544
I382
aI207
aI140
aI140
aNaI0
aI0
aI0
aI255
aI165
aI0
aI2
aI00
ag91
ag95
aaa(lp1545
g10
a(lp1546
I177
aI544
aI48
aI118
aNaI0
aI0
aI0
aI230
aI230
aI250
aI1
aI00
ag52
ag98
aaassI34
(dp1547
g100
(lp1548
I0
aI1
asg102
g6
sg103
(lp1549
(lp1550
g10
a(lp1551
I103
aI565
aI40
aI35
aNaI0
aI0
aI0
aI255
aI0
aI0
aI2
aI00
ag26
ag27
aaa(lp1552
g10
a(lp1553
I155
aI549
aI99
aI94
ag1283
aI0
aI0
aI0
aI30
aI144
aI255
aI2
aI00
ag31
ag32
aaa(lp1554
g10
a(lp1555
I393
aI272
aI60
aI60
aNaI0
aI0
aI0
aI230
aI230
aI250
aI2
aI00
ag12
ag35
aaa(lp1556
g10
a(lp1557
I307
aI250
aI60
aI58
ag113
aI0
aI0
aI0
aI165
aI42
aI42
aI2
aI00
ag39
ag40
aaa(lp1558
g10
a(lp1559
I392
aI226
aI60
aI60
aNaI0
aI0
aI0
aI230
aI230
aI250
aI2
aI00
ag12
ag43
aaa(lp1560
g10
a(lp1561
I752
aI219
aI60
aI60
aNaI0
aI0
aI0
aI230
aI230
aI250
aI2
aI00
ag12
ag118
aaa(lp1562
g10
a(lp1563
I798
aI219
aI60
aI60
aNaI0
aI0
aI0
aI230
aI230
aI250
aI2
aI00
ag12
ag121
aaa(lp1564
g10
a(lp1565
I895
aI218
aI48
aI118
aNaI0
aI0
aI0
aI230
aI230
aI250
aI1
aI00
ag52
ag53
aaa(lp1566
g10
a(lp1567
I671
aI214
aI48
aI118
aNaI0
aI0
aI0
aI230
aI230
aI250
aI1
aI00
ag52
ag56
aaa(lp1568
g10
a(lp1569
I392
aI144
aI118
aI48
aNaI0
aI0
aI0
aI230
aI230
aI250
aI1
aI00
ag52
ag59
aaa(lp1570
g10
a(lp1571
I390
aI358
aI118
aI48
aNaI0
aI0
aI0
aI230
aI230
aI250
aI1
aI00
ag52
ag62
aaa(lp1572
g10
a(lp1573
I757
aI358
aI101
aI63
ag65
aI0
aI0
aI0
aI160
aI32
aI240
aI2
aI00
ag66
ag67
aaa(lp1574
g10
a(lp1575
I757
aI130
aI101
aI63
ag30
aI0
aI0
aI0
aI160
aI32
aI240
aI2
aI00
ag66
ag70
aaa(lp1576
g10
a(lp1577
I535
aI230
aI63
aI101
ag73
aI0
aI0
aI0
aI160
aI32
aI240
aI2
aI00
ag66
ag74
aaa(lp1578
g10
a(lp1579
I304
aI225
aI63
aI101
ag77
aI0
aI0
aI0
aI160
aI32
aI240
aI2
aI00
ag66
ag78
aaa(lp1580
g10
a(lp1581
I75
aI576
aI60
aI150
aNaI0
aI0
aI0
aI215
aI253
aI254
aI2
aI00
ag52
ag81
aaa(lp1582
g10
a(lp1583
I74
aI485
aI60
aI150
aNaI0
aI0
aI0
aI215
aI253
aI254
aI2
aI00
ag52
ag84
aaa(lp1584
g10
a(lp1585
I11
aI464
aI140
aI280
aNaI0
aI0
aI0
aI144
aI238
aI144
aI2
aI00
ag87
ag88
aaa(lp1586
g10
a(lp1587
I736
aI207
aI140
aI140
aNaI0
aI0
aI0
aI255
aI165
aI0
aI2
aI00
ag91
ag92
aaa(lp1588
g10
a(lp1589
I382
aI207
aI140
aI140
aNaI0
aI0
aI0
aI255
aI165
aI0
aI2
aI00
ag91
ag95
aaa(lp1590
g10
a(lp1591
I177
aI544
aI48
aI118
aNaI0
aI0
aI0
aI230
aI230
aI250
aI1
aI00
ag52
ag98
aaassI35
(dp1592
g100
(lp1593
I0
aI1
asg102
g6
sg103
(lp1594
(lp1595
g10
a(lp1596
I103
aI535
aI40
aI35
aNaI0
aI0
aI0
aI255
aI0
aI0
aI2
aI00
ag26
ag27
aaa(lp1597
g10
a(lp1598
I155
aI519
aI99
aI94
ag1283
aI0
aI0
aI0
aI30
aI144
aI255
aI2
aI00
ag31
ag32
aaa(lp1599
g10
a(lp1600
I393
aI272
aI60
aI60
aNaI0
aI0
aI0
aI230
aI230
aI250
aI2
aI00
ag12
ag35
aaa(lp1601
g10
a(lp1602
I307
aI250
aI60
aI58
ag113
aI0
aI0
aI0
aI165
aI42
aI42
aI2
aI00
ag39
ag40
aaa(lp1603
g10
a(lp1604
I392
aI226
aI60
aI60
aNaI0
aI0
aI0
aI230
aI230
aI250
aI2
aI00
ag12
ag43
aaa(lp1605
g10
a(lp1606
I752
aI219
aI60
aI60
aNaI0
aI0
aI0
aI230
aI230
aI250
aI2
aI00
ag12
ag118
aaa(lp1607
g10
a(lp1608
I798
aI219
aI60
aI60
aNaI0
aI0
aI0
aI230
aI230
aI250
aI2
aI00
ag12
ag121
aaa(lp1609
g10
a(lp1610
I895
aI218
aI48
aI118
aNaI0
aI0
aI0
aI230
aI230
aI250
aI1
aI00
ag52
ag53
aaa(lp1611
g10
a(lp1612
I671
aI214
aI48
aI118
aNaI0
aI0
aI0
aI230
aI230
aI250
aI1
aI00
ag52
ag56
aaa(lp1613
g10
a(lp1614
I392
aI144
aI118
aI48
aNaI0
aI0
aI0
aI230
aI230
aI250
aI1
aI00
ag52
ag59
aaa(lp1615
g10
a(lp1616
I390
aI358
aI118
aI48
aNaI0
aI0
aI0
aI230
aI230
aI250
aI1
aI00
ag52
ag62
aaa(lp1617
g10
a(lp1618
I757
aI358
aI101
aI63
ag65
aI0
aI0
aI0
aI160
aI32
aI240
aI2
aI00
ag66
ag67
aaa(lp1619
g10
a(lp1620
I757
aI130
aI101
aI63
ag30
aI0
aI0
aI0
aI160
aI32
aI240
aI2
aI00
ag66
ag70
aaa(lp1621
g10
a(lp1622
I535
aI230
aI63
aI101
ag73
aI0
aI0
aI0
aI160
aI32
aI240
aI2
aI00
ag66
ag74
aaa(lp1623
g10
a(lp1624
I304
aI225
aI63
aI101
ag77
aI0
aI0
aI0
aI160
aI32
aI240
aI2
aI00
ag66
ag78
aaa(lp1625
g10
a(lp1626
I75
aI576
aI60
aI150
aNaI0
aI0
aI0
aI215
aI253
aI254
aI2
aI00
ag52
ag81
aaa(lp1627
g10
a(lp1628
I74
aI485
aI60
aI150
aNaI0
aI0
aI0
aI215
aI253
aI254
aI2
aI00
ag52
ag84
aaa(lp1629
g10
a(lp1630
I11
aI464
aI140
aI280
aNaI0
aI0
aI0
aI144
aI238
aI144
aI2
aI00
ag87
ag88
aaa(lp1631
g10
a(lp1632
I736
aI207
aI140
aI140
aNaI0
aI0
aI0
aI255
aI165
aI0
aI2
aI00
ag91
ag92
aaa(lp1633
g10
a(lp1634
I382
aI207
aI140
aI140
aNaI0
aI0
aI0
aI255
aI165
aI0
aI2
aI00
ag91
ag95
aaa(lp1635
g10
a(lp1636
I177
aI544
aI48
aI118
aNaI0
aI0
aI0
aI230
aI230
aI250
aI1
aI00
ag52
ag98
aaassI36
(dp1637
g100
(lp1638
I0
aI1
asg102
g6
sg103
(lp1639
(lp1640
g10
a(lp1641
I103
aI504
aI40
aI35
aNaI0
aI0
aI0
aI255
aI0
aI0
aI2
aI00
ag26
ag27
aaa(lp1642
g10
a(lp1643
I155
aI488
aI99
aI94
ag1283
aI0
aI0
aI0
aI30
aI144
aI255
aI2
aI00
ag31
ag32
aaa(lp1644
g10
a(lp1645
I393
aI272
aI60
aI60
aNaI0
aI0
aI0
aI230
aI230
aI250
aI2
aI00
ag12
ag35
aaa(lp1646
g10
a(lp1647
I307
aI250
aI60
aI58
ag113
aI0
aI0
aI0
aI165
aI42
aI42
aI2
aI00
ag39
ag40
aaa(lp1648
g10
a(lp1649
I392
aI226
aI60
aI60
aNaI0
aI0
aI0
aI230
aI230
aI250
aI2
aI00
ag12
ag43
aaa(lp1650
g10
a(lp1651
I752
aI219
aI60
aI60
aNaI0
aI0
aI0
aI230
aI230
aI250
aI2
aI00
ag12
ag118
aaa(lp1652
g10
a(lp1653
I798
aI219
aI60
aI60
aNaI0
aI0
aI0
aI230
aI230
aI250
aI2
aI00
ag12
ag121
aaa(lp1654
g10
a(lp1655
I895
aI218
aI48
aI118
aNaI0
aI0
aI0
aI230
aI230
aI250
aI1
aI00
ag52
ag53
aaa(lp1656
g10
a(lp1657
I671
aI214
aI48
aI118
aNaI0
aI0
aI0
aI230
aI230
aI250
aI1
aI00
ag52
ag56
aaa(lp1658
g10
a(lp1659
I392
aI144
aI118
aI48
aNaI0
aI0
aI0
aI230
aI230
aI250
aI1
aI00
ag52
ag59
aaa(lp1660
g10
a(lp1661
I390
aI358
aI118
aI48
aNaI0
aI0
aI0
aI230
aI230
aI250
aI1
aI00
ag52
ag62
aaa(lp1662
g10
a(lp1663
I757
aI358
aI101
aI63
ag65
aI0
aI0
aI0
aI160
aI32
aI240
aI2
aI00
ag66
ag67
aaa(lp1664
g10
a(lp1665
I757
aI130
aI101
aI63
ag30
aI0
aI0
aI0
aI160
aI32
aI240
aI2
aI00
ag66
ag70
aaa(lp1666
g10
a(lp1667
I535
aI230
aI63
aI101
ag73
aI0
aI0
aI0
aI160
aI32
aI240
aI2
aI00
ag66
ag74
aaa(lp1668
g10
a(lp1669
I304
aI225
aI63
aI101
ag77
aI0
aI0
aI0
aI160
aI32
aI240
aI2
aI00
ag66
ag78
aaa(lp1670
g10
a(lp1671
I75
aI576
aI60
aI150
aNaI0
aI0
aI0
aI215
aI253
aI254
aI2
aI00
ag52
ag81
aaa(lp1672
g10
a(lp1673
I74
aI485
aI60
aI150
aNaI0
aI0
aI0
aI215
aI253
aI254
aI2
aI00
ag52
ag84
aaa(lp1674
g10
a(lp1675
I11
aI464
aI140
aI280
aNaI0
aI0
aI0
aI144
aI238
aI144
aI2
aI00
ag87
ag88
aaa(lp1676
g10
a(lp1677
I736
aI207
aI140
aI140
aNaI0
aI0
aI0
aI255
aI165
aI0
aI2
aI00
ag91
ag92
aaa(lp1678
g10
a(lp1679
I382
aI207
aI140
aI140
aNaI0
aI0
aI0
aI255
aI165
aI0
aI2
aI00
ag91
ag95
aaa(lp1680
g10
a(lp1681
I177
aI544
aI48
aI118
aNaI0
aI0
aI0
aI230
aI230
aI250
aI1
aI00
ag52
ag98
aaassI37
(dp1682
g100
(lp1683
I0
aI1
asg102
g6
sg103
(lp1684
(lp1685
g10
a(lp1686
I103
aI474
aI40
aI35
aNaI0
aI0
aI0
aI255
aI0
aI0
aI2
aI00
ag26
ag27
aaa(lp1687
g10
a(lp1688
I155
aI458
aI99
aI94
ag1283
aI0
aI0
aI0
aI30
aI144
aI255
aI2
aI00
ag31
ag32
aaa(lp1689
g10
a(lp1690
I393
aI272
aI60
aI60
aNaI0
aI0
aI0
aI230
aI230
aI250
aI2
aI00
ag12
ag35
aaa(lp1691
g10
a(lp1692
I307
aI250
aI60
aI58
ag113
aI0
aI0
aI0
aI165
aI42
aI42
aI2
aI00
ag39
ag40
aaa(lp1693
g10
a(lp1694
I392
aI226
aI60
aI60
aNaI0
aI0
aI0
aI230
aI230
aI250
aI2
aI00
ag12
ag43
aaa(lp1695
g10
a(lp1696
I752
aI219
aI60
aI60
aNaI0
aI0
aI0
aI230
aI230
aI250
aI2
aI00
ag12
ag118
aaa(lp1697
g10
a(lp1698
I798
aI219
aI60
aI60
aNaI0
aI0
aI0
aI230
aI230
aI250
aI2
aI00
ag12
ag121
aaa(lp1699
g10
a(lp1700
I895
aI218
aI48
aI118
aNaI0
aI0
aI0
aI230
aI230
aI250
aI1
aI00
ag52
ag53
aaa(lp1701
g10
a(lp1702
I671
aI214
aI48
aI118
aNaI0
aI0
aI0
aI230
aI230
aI250
aI1
aI00
ag52
ag56
aaa(lp1703
g10
a(lp1704
I392
aI144
aI118
aI48
aNaI0
aI0
aI0
aI230
aI230
aI250
aI1
aI00
ag52
ag59
aaa(lp1705
g10
a(lp1706
I390
aI358
aI118
aI48
aNaI0
aI0
aI0
aI230
aI230
aI250
aI1
aI00
ag52
ag62
aaa(lp1707
g10
a(lp1708
I757
aI358
aI101
aI63
ag65
aI0
aI0
aI0
aI160
aI32
aI240
aI2
aI00
ag66
ag67
aaa(lp1709
g10
a(lp1710
I757
aI130
aI101
aI63
ag30
aI0
aI0
aI0
aI160
aI32
aI240
aI2
aI00
ag66
ag70
aaa(lp1711
g10
a(lp1712
I535
aI230
aI63
aI101
ag73
aI0
aI0
aI0
aI160
aI32
aI240
aI2
aI00
ag66
ag74
aaa(lp1713
g10
a(lp1714
I304
aI225
aI63
aI101
ag77
aI0
aI0
aI0
aI160
aI32
aI240
aI2
aI00
ag66
ag78
aaa(lp1715
g10
a(lp1716
I75
aI576
aI60
aI150
aNaI0
aI0
aI0
aI215
aI253
aI254
aI2
aI00
ag52
ag81
aaa(lp1717
g10
a(lp1718
I74
aI485
aI60
aI150
aNaI0
aI0
aI0
aI215
aI253
aI254
aI2
aI00
ag52
ag84
aaa(lp1719
g10
a(lp1720
I11
aI464
aI140
aI280
aNaI0
aI0
aI0
aI144
aI238
aI144
aI2
aI00
ag87
ag88
aaa(lp1721
g10
a(lp1722
I736
aI207
aI140
aI140
aNaI0
aI0
aI0
aI255
aI165
aI0
aI2
aI00
ag91
ag92
aaa(lp1723
g10
a(lp1724
I382
aI207
aI140
aI140
aNaI0
aI0
aI0
aI255
aI165
aI0
aI2
aI00
ag91
ag95
aaa(lp1725
g10
a(lp1726
I177
aI544
aI48
aI118
aNaI0
aI0
aI0
aI230
aI230
aI250
aI1
aI00
ag52
ag98
aaassI38
(dp1727
g100
(lp1728
I0
aI1
asg102
g6
sg103
(lp1729
(lp1730
g10
a(lp1731
I103
aI444
aI40
aI35
aNaI0
aI0
aI0
aI255
aI0
aI0
aI2
aI00
ag26
ag27
aaa(lp1732
g10
a(lp1733
I155
aI428
aI99
aI94
ag1283
aI0
aI0
aI0
aI30
aI144
aI255
aI2
aI00
ag31
ag32
aaa(lp1734
g10
a(lp1735
I393
aI272
aI60
aI60
aNaI0
aI0
aI0
aI230
aI230
aI250
aI2
aI00
ag12
ag35
aaa(lp1736
g10
a(lp1737
I307
aI250
aI60
aI58
ag113
aI0
aI0
aI0
aI165
aI42
aI42
aI2
aI00
ag39
ag40
aaa(lp1738
g10
a(lp1739
I392
aI226
aI60
aI60
aNaI0
aI0
aI0
aI230
aI230
aI250
aI2
aI00
ag12
ag43
aaa(lp1740
g10
a(lp1741
I752
aI219
aI60
aI60
aNaI0
aI0
aI0
aI230
aI230
aI250
aI2
aI00
ag12
ag118
aaa(lp1742
g10
a(lp1743
I798
aI219
aI60
aI60
aNaI0
aI0
aI0
aI230
aI230
aI250
aI2
aI00
ag12
ag121
aaa(lp1744
g10
a(lp1745
I895
aI218
aI48
aI118
aNaI0
aI0
aI0
aI230
aI230
aI250
aI1
aI00
ag52
ag53
aaa(lp1746
g10
a(lp1747
I671
aI214
aI48
aI118
aNaI0
aI0
aI0
aI230
aI230
aI250
aI1
aI00
ag52
ag56
aaa(lp1748
g10
a(lp1749
I392
aI144
aI118
aI48
aNaI0
aI0
aI0
aI230
aI230
aI250
aI1
aI00
ag52
ag59
aaa(lp1750
g10
a(lp1751
I390
aI358
aI118
aI48
aNaI0
aI0
aI0
aI230
aI230
aI250
aI1
aI00
ag52
ag62
aaa(lp1752
g10
a(lp1753
I757
aI358
aI101
aI63
ag65
aI0
aI0
aI0
aI160
aI32
aI240
aI2
aI00
ag66
ag67
aaa(lp1754
g10
a(lp1755
I757
aI130
aI101
aI63
ag30
aI0
aI0
aI0
aI160
aI32
aI240
aI2
aI00
ag66
ag70
aaa(lp1756
g10
a(lp1757
I535
aI230
aI63
aI101
ag73
aI0
aI0
aI0
aI160
aI32
aI240
aI2
aI00
ag66
ag74
aaa(lp1758
g10
a(lp1759
I304
aI225
aI63
aI101
ag77
aI0
aI0
aI0
aI160
aI32
aI240
aI2
aI00
ag66
ag78
aaa(lp1760
g10
a(lp1761
I75
aI576
aI60
aI150
aNaI0
aI0
aI0
aI215
aI253
aI254
aI2
aI00
ag52
ag81
aaa(lp1762
g10
a(lp1763
I74
aI485
aI60
aI150
aNaI0
aI0
aI0
aI215
aI253
aI254
aI2
aI00
ag52
ag84
aaa(lp1764
g10
a(lp1765
I11
aI464
aI140
aI280
aNaI0
aI0
aI0
aI144
aI238
aI144
aI2
aI00
ag87
ag88
aaa(lp1766
g10
a(lp1767
I736
aI207
aI140
aI140
aNaI0
aI0
aI0
aI255
aI165
aI0
aI2
aI00
ag91
ag92
aaa(lp1768
g10
a(lp1769
I382
aI207
aI140
aI140
aNaI0
aI0
aI0
aI255
aI165
aI0
aI2
aI00
ag91
ag95
aaa(lp1770
g10
a(lp1771
I177
aI544
aI48
aI118
aNaI0
aI0
aI0
aI230
aI230
aI250
aI1
aI00
ag52
ag98
aaassI39
(dp1772
g100
(lp1773
I0
aI1
asg102
g6
sg103
(lp1774
(lp1775
g10
a(lp1776
I103
aI413
aI40
aI35
aNaI0
aI0
aI0
aI255
aI0
aI0
aI2
aI00
ag26
ag27
aaa(lp1777
g10
a(lp1778
I155
aI397
aI99
aI94
ag1283
aI0
aI0
aI0
aI30
aI144
aI255
aI2
aI00
ag31
ag32
aaa(lp1779
g10
a(lp1780
I393
aI272
aI60
aI60
aNaI0
aI0
aI0
aI230
aI230
aI250
aI2
aI00
ag12
ag35
aaa(lp1781
g10
a(lp1782
I307
aI250
aI60
aI58
ag113
aI0
aI0
aI0
aI165
aI42
aI42
aI2
aI00
ag39
ag40
aaa(lp1783
g10
a(lp1784
I392
aI226
aI60
aI60
aNaI0
aI0
aI0
aI230
aI230
aI250
aI2
aI00
ag12
ag43
aaa(lp1785
g10
a(lp1786
I752
aI219
aI60
aI60
aNaI0
aI0
aI0
aI230
aI230
aI250
aI2
aI00
ag12
ag118
aaa(lp1787
g10
a(lp1788
I798
aI219
aI60
aI60
aNaI0
aI0
aI0
aI230
aI230
aI250
aI2
aI00
ag12
ag121
aaa(lp1789
g10
a(lp1790
I895
aI218
aI48
aI118
aNaI0
aI0
aI0
aI230
aI230
aI250
aI1
aI00
ag52
ag53
aaa(lp1791
g10
a(lp1792
I671
aI214
aI48
aI118
aNaI0
aI0
aI0
aI230
aI230
aI250
aI1
aI00
ag52
ag56
aaa(lp1793
g10
a(lp1794
I392
aI144
aI118
aI48
aNaI0
aI0
aI0
aI230
aI230
aI250
aI1
aI00
ag52
ag59
aaa(lp1795
g10
a(lp1796
I390
aI358
aI118
aI48
aNaI0
aI0
aI0
aI230
aI230
aI250
aI1
aI00
ag52
ag62
aaa(lp1797
g10
a(lp1798
I757
aI358
aI101
aI63
ag65
aI0
aI0
aI0
aI160
aI32
aI240
aI2
aI00
ag66
ag67
aaa(lp1799
g10
a(lp1800
I757
aI130
aI101
aI63
ag30
aI0
aI0
aI0
aI160
aI32
aI240
aI2
aI00
ag66
ag70
aaa(lp1801
g10
a(lp1802
I535
aI230
aI63
aI101
ag73
aI0
aI0
aI0
aI160
aI32
aI240
aI2
aI00
ag66
ag74
aaa(lp1803
g10
a(lp1804
I304
aI225
aI63
aI101
ag77
aI0
aI0
aI0
aI160
aI32
aI240
aI2
aI00
ag66
ag78
aaa(lp1805
g10
a(lp1806
I75
aI576
aI60
aI150
aNaI0
aI0
aI0
aI215
aI253
aI254
aI2
aI00
ag52
ag81
aaa(lp1807
g10
a(lp1808
I74
aI485
aI60
aI150
aNaI0
aI0
aI0
aI215
aI253
aI254
aI2
aI00
ag52
ag84
aaa(lp1809
g10
a(lp1810
I11
aI464
aI140
aI280
aNaI0
aI0
aI0
aI144
aI238
aI144
aI2
aI00
ag87
ag88
aaa(lp1811
g10
a(lp1812
I736
aI207
aI140
aI140
aNaI0
aI0
aI0
aI255
aI165
aI0
aI2
aI00
ag91
ag92
aaa(lp1813
g10
a(lp1814
I382
aI207
aI140
aI140
aNaI0
aI0
aI0
aI255
aI165
aI0
aI2
aI00
ag91
ag95
aaa(lp1815
g10
a(lp1816
I177
aI544
aI48
aI118
aNaI0
aI0
aI0
aI230
aI230
aI250
aI1
aI00
ag52
ag98
aaassI40
(dp1817
g100
(lp1818
I0
aI1
asg102
g6
sg103
(lp1819
(lp1820
g10
a(lp1821
I103
aI391
aI40
aI35
aNaI0
aI0
aI0
aI255
aI0
aI0
aI2
aI00
ag26
ag27
aaa(lp1822
g10
a(lp1823
I155
aI375
aI99
aI94
ag1283
aI0
aI0
aI0
aI30
aI144
aI255
aI2
aI00
ag31
ag32
aaa(lp1824
g10
a(lp1825
I393
aI272
aI60
aI60
aNaI0
aI0
aI0
aI230
aI230
aI250
aI2
aI00
ag12
ag35
aaa(lp1826
g10
a(lp1827
I307
aI250
aI60
aI58
ag113
aI0
aI0
aI0
aI165
aI42
aI42
aI2
aI00
ag39
ag40
aaa(lp1828
g10
a(lp1829
I392
aI226
aI60
aI60
aNaI0
aI0
aI0
aI230
aI230
aI250
aI2
aI00
ag12
ag43
aaa(lp1830
g10
a(lp1831
I752
aI219
aI60
aI60
aNaI0
aI0
aI0
aI230
aI230
aI250
aI2
aI00
ag12
ag118
aaa(lp1832
g10
a(lp1833
I798
aI219
aI60
aI60
aNaI0
aI0
aI0
aI230
aI230
aI250
aI2
aI00
ag12
ag121
aaa(lp1834
g10
a(lp1835
I895
aI218
aI48
aI118
aNaI0
aI0
aI0
aI230
aI230
aI250
aI1
aI00
ag52
ag53
aaa(lp1836
g10
a(lp1837
I671
aI214
aI48
aI118
aNaI0
aI0
aI0
aI230
aI230
aI250
aI1
aI00
ag52
ag56
aaa(lp1838
g10
a(lp1839
I392
aI144
aI118
aI48
aNaI0
aI0
aI0
aI230
aI230
aI250
aI1
aI00
ag52
ag59
aaa(lp1840
g10
a(lp1841
I390
aI358
aI118
aI48
aNaI0
aI0
aI0
aI230
aI230
aI250
aI1
aI00
ag52
ag62
aaa(lp1842
g10
a(lp1843
I757
aI358
aI101
aI63
ag65
aI0
aI0
aI0
aI160
aI32
aI240
aI2
aI00
ag66
ag67
aaa(lp1844
g10
a(lp1845
I757
aI130
aI101
aI63
ag30
aI0
aI0
aI0
aI160
aI32
aI240
aI2
aI00
ag66
ag70
aaa(lp1846
g10
a(lp1847
I535
aI230
aI63
aI101
ag73
aI0
aI0
aI0
aI160
aI32
aI240
aI2
aI00
ag66
ag74
aaa(lp1848
g10
a(lp1849
I304
aI225
aI63
aI101
ag77
aI0
aI0
aI0
aI160
aI32
aI240
aI2
aI00
ag66
ag78
aaa(lp1850
g10
a(lp1851
I75
aI576
aI60
aI150
aNaI0
aI0
aI0
aI215
aI253
aI254
aI2
aI00
ag52
ag81
aaa(lp1852
g10
a(lp1853
I74
aI485
aI60
aI150
aNaI0
aI0
aI0
aI215
aI253
aI254
aI2
aI00
ag52
ag84
aaa(lp1854
g10
a(lp1855
I11
aI464
aI140
aI280
aNaI0
aI0
aI0
aI144
aI238
aI144
aI2
aI00
ag87
ag88
aaa(lp1856
g10
a(lp1857
I736
aI207
aI140
aI140
aNaI0
aI0
aI0
aI255
aI165
aI0
aI2
aI00
ag91
ag92
aaa(lp1858
g10
a(lp1859
I382
aI207
aI140
aI140
aNaI0
aI0
aI0
aI255
aI165
aI0
aI2
aI00
ag91
ag95
aaa(lp1860
g10
a(lp1861
I177
aI544
aI48
aI118
aNaI0
aI0
aI0
aI230
aI230
aI250
aI1
aI00
ag52
ag98
aaassI41
(dp1862
g100
(lp1863
I0
aI1
asg102
g6
sg103
(lp1864
(lp1865
g10
a(lp1866
I103
aI391
aI40
aI35
aNaI0
aI0
aI0
aI255
aI0
aI0
aI2
aI00
ag26
ag27
aaa(lp1867
g10
a(lp1868
I155
aI375
aI99
aI94
ag1283
aI0
aI0
aI0
aI30
aI144
aI255
aI2
aI00
ag31
ag32
aaa(lp1869
g10
a(lp1870
I393
aI272
aI60
aI60
aNaI0
aI0
aI0
aI230
aI230
aI250
aI2
aI00
ag12
ag35
aaa(lp1871
g10
a(lp1872
I307
aI250
aI60
aI58
ag113
aI0
aI0
aI0
aI165
aI42
aI42
aI2
aI00
ag39
ag40
aaa(lp1873
g10
a(lp1874
I392
aI226
aI60
aI60
aNaI0
aI0
aI0
aI230
aI230
aI250
aI2
aI00
ag12
ag43
aaa(lp1875
g10
a(lp1876
I752
aI219
aI60
aI60
aNaI0
aI0
aI0
aI230
aI230
aI250
aI2
aI00
ag12
ag118
aaa(lp1877
g10
a(lp1878
I798
aI219
aI60
aI60
aNaI0
aI0
aI0
aI230
aI230
aI250
aI2
aI00
ag12
ag121
aaa(lp1879
g10
a(lp1880
I895
aI218
aI48
aI118
aNaI0
aI0
aI0
aI230
aI230
aI250
aI1
aI00
ag52
ag53
aaa(lp1881
g10
a(lp1882
I671
aI214
aI48
aI118
aNaI0
aI0
aI0
aI230
aI230
aI250
aI1
aI00
ag52
ag56
aaa(lp1883
g10
a(lp1884
I392
aI144
aI118
aI48
aNaI0
aI0
aI0
aI230
aI230
aI250
aI1
aI00
ag52
ag59
aaa(lp1885
g10
a(lp1886
I390
aI358
aI118
aI48
aNaI0
aI0
aI0
aI230
aI230
aI250
aI1
aI00
ag52
ag62
aaa(lp1887
g10
a(lp1888
I757
aI358
aI101
aI63
ag65
aI0
aI0
aI0
aI160
aI32
aI240
aI2
aI00
ag66
ag67
aaa(lp1889
g10
a(lp1890
I757
aI130
aI101
aI63
ag30
aI0
aI0
aI0
aI160
aI32
aI240
aI2
aI00
ag66
ag70
aaa(lp1891
g10
a(lp1892
I535
aI230
aI63
aI101
ag73
aI0
aI0
aI0
aI160
aI32
aI240
aI2
aI00
ag66
ag74
aaa(lp1893
g10
a(lp1894
I304
aI225
aI63
aI101
ag77
aI0
aI0
aI0
aI160
aI32
aI240
aI2
aI00
ag66
ag78
aaa(lp1895
g10
a(lp1896
I75
aI576
aI60
aI150
aNaI0
aI0
aI0
aI215
aI253
aI254
aI2
aI00
ag52
ag81
aaa(lp1897
g10
a(lp1898
I74
aI485
aI60
aI150
aNaI0
aI0
aI0
aI215
aI253
aI254
aI2
aI00
ag52
ag84
aaa(lp1899
g10
a(lp1900
I11
aI464
aI140
aI280
aNaI0
aI0
aI0
aI144
aI238
aI144
aI2
aI00
ag87
ag88
aaa(lp1901
g10
a(lp1902
I736
aI207
aI140
aI140
aNaI0
aI0
aI0
aI255
aI165
aI0
aI2
aI00
ag91
ag92
aaa(lp1903
g10
a(lp1904
I382
aI207
aI140
aI140
aNaI0
aI0
aI0
aI255
aI165
aI0
aI2
aI00
ag91
ag95
aaa(lp1905
g10
a(lp1906
I177
aI544
aI48
aI118
aNaI0
aI0
aI0
aI230
aI230
aI250
aI1
aI00
ag52
ag98
aaassI42
(dp1907
g100
(lp1908
I0
aI1
asg102
g6
sg103
(lp1909
(lp1910
g10
a(lp1911
I103
aI391
aI40
aI35
aNaI0
aI0
aI0
aI255
aI0
aI0
aI2
aI00
ag26
ag27
aaa(lp1912
g10
a(lp1913
I155
aI375
aI99
aI94
ag1283
aI0
aI0
aI0
aI30
aI144
aI255
aI2
aI00
ag31
ag32
aaa(lp1914
g10
a(lp1915
I393
aI272
aI60
aI60
aNaI0
aI0
aI0
aI230
aI230
aI250
aI2
aI00
ag12
ag35
aaa(lp1916
g10
a(lp1917
I307
aI250
aI60
aI58
ag113
aI0
aI0
aI0
aI165
aI42
aI42
aI2
aI00
ag39
ag40
aaa(lp1918
g10
a(lp1919
I392
aI226
aI60
aI60
aNaI0
aI0
aI0
aI230
aI230
aI250
aI2
aI00
ag12
ag43
aaa(lp1920
g10
a(lp1921
I752
aI219
aI60
aI60
aNaI0
aI0
aI0
aI230
aI230
aI250
aI2
aI00
ag12
ag118
aaa(lp1922
g10
a(lp1923
I798
aI219
aI60
aI60
aNaI0
aI0
aI0
aI230
aI230
aI250
aI2
aI00
ag12
ag121
aaa(lp1924
g10
a(lp1925
I895
aI218
aI48
aI118
aNaI0
aI0
aI0
aI230
aI230
aI250
aI1
aI00
ag52
ag53
aaa(lp1926
g10
a(lp1927
I671
aI214
aI48
aI118
aNaI0
aI0
aI0
aI230
aI230
aI250
aI1
aI00
ag52
ag56
aaa(lp1928
g10
a(lp1929
I392
aI144
aI118
aI48
aNaI0
aI0
aI0
aI230
aI230
aI250
aI1
aI00
ag52
ag59
aaa(lp1930
g10
a(lp1931
I390
aI358
aI118
aI48
aNaI0
aI0
aI0
aI230
aI230
aI250
aI1
aI00
ag52
ag62
aaa(lp1932
g10
a(lp1933
I757
aI358
aI101
aI63
ag65
aI0
aI0
aI0
aI160
aI32
aI240
aI2
aI00
ag66
ag67
aaa(lp1934
g10
a(lp1935
I757
aI130
aI101
aI63
ag30
aI0
aI0
aI0
aI160
aI32
aI240
aI2
aI00
ag66
ag70
aaa(lp1936
g10
a(lp1937
I535
aI230
aI63
aI101
ag73
aI0
aI0
aI0
aI160
aI32
aI240
aI2
aI00
ag66
ag74
aaa(lp1938
g10
a(lp1939
I304
aI225
aI63
aI101
ag77
aI0
aI0
aI0
aI160
aI32
aI240
aI2
aI00
ag66
ag78
aaa(lp1940
g10
a(lp1941
I75
aI576
aI60
aI150
aNaI0
aI0
aI0
aI215
aI253
aI254
aI2
aI00
ag52
ag81
aaa(lp1942
g10
a(lp1943
I74
aI485
aI60
aI150
aNaI0
aI0
aI0
aI215
aI253
aI254
aI2
aI00
ag52
ag84
aaa(lp1944
g10
a(lp1945
I11
aI464
aI140
aI280
aNaI0
aI0
aI0
aI144
aI238
aI144
aI2
aI00
ag87
ag88
aaa(lp1946
g10
a(lp1947
I736
aI207
aI140
aI140
aNaI0
aI0
aI0
aI255
aI165
aI0
aI2
aI00
ag91
ag92
aaa(lp1948
g10
a(lp1949
I382
aI207
aI140
aI140
aNaI0
aI0
aI0
aI255
aI165
aI0
aI2
aI00
ag91
ag95
aaa(lp1950
g10
a(lp1951
I177
aI544
aI48
aI118
aNaI0
aI0
aI0
aI230
aI230
aI250
aI1
aI00
ag52
ag98
aaassI43
(dp1952
g100
(lp1953
I1
asg102
g6
sg103
(lp1954
(lp1955
g10
a(lp1956
I103
aI391
aI40
aI35
aNaI0
aI0
aI0
aI255
aI0
aI0
aI2
aI00
ag26
ag27
aaa(lp1957
g10
a(lp1958
I155
aI375
aI99
aI94
ag1283
aI0
aI0
aI0
aI30
aI144
aI255
aI2
aI00
ag31
ag32
aaa(lp1959
g10
a(lp1960
I393
aI272
aI60
aI60
aNaI0
aI0
aI0
aI230
aI230
aI250
aI2
aI00
ag12
ag35
aaa(lp1961
g10
a(lp1962
I307
aI250
aI60
aI58
ag113
aI0
aI0
aI0
aI165
aI42
aI42
aI2
aI00
ag39
ag40
aaa(lp1963
g10
a(lp1964
I392
aI226
aI60
aI60
aNaI0
aI0
aI0
aI230
aI230
aI250
aI2
aI00
ag12
ag43
aaa(lp1965
g10
a(lp1966
I752
aI219
aI60
aI60
aNaI0
aI0
aI0
aI230
aI230
aI250
aI2
aI00
ag12
ag118
aaa(lp1967
g10
a(lp1968
I798
aI219
aI60
aI60
aNaI0
aI0
aI0
aI230
aI230
aI250
aI2
aI00
ag12
ag121
aaa(lp1969
g10
a(lp1970
I895
aI218
aI48
aI118
aNaI0
aI0
aI0
aI230
aI230
aI250
aI1
aI00
ag52
ag53
aaa(lp1971
g10
a(lp1972
I671
aI214
aI48
aI118
aNaI0
aI0
aI0
aI230
aI230
aI250
aI1
aI00
ag52
ag56
aaa(lp1973
g10
a(lp1974
I392
aI144
aI118
aI48
aNaI0
aI0
aI0
aI230
aI230
aI250
aI1
aI00
ag52
ag59
aaa(lp1975
g10
a(lp1976
I390
aI358
aI118
aI48
aNaI0
aI0
aI0
aI230
aI230
aI250
aI1
aI00
ag52
ag62
aaa(lp1977
g10
a(lp1978
I757
aI358
aI101
aI63
ag65
aI0
aI0
aI0
aI160
aI32
aI240
aI2
aI00
ag66
ag67
aaa(lp1979
g10
a(lp1980
I757
aI130
aI101
aI63
ag30
aI0
aI0
aI0
aI160
aI32
aI240
aI2
aI00
ag66
ag70
aaa(lp1981
g10
a(lp1982
I535
aI230
aI63
aI101
ag73
aI0
aI0
aI0
aI160
aI32
aI240
aI2
aI00
ag66
ag74
aaa(lp1983
g10
a(lp1984
I304
aI225
aI63
aI101
ag77
aI0
aI0
aI0
aI160
aI32
aI240
aI2
aI00
ag66
ag78
aaa(lp1985
g10
a(lp1986
I75
aI576
aI60
aI150
aNaI0
aI0
aI0
aI215
aI253
aI254
aI2
aI00
ag52
ag81
aaa(lp1987
g10
a(lp1988
I74
aI485
aI60
aI150
aNaI0
aI0
aI0
aI215
aI253
aI254
aI2
aI00
ag52
ag84
aaa(lp1989
g10
a(lp1990
I11
aI464
aI140
aI280
aNaI0
aI0
aI0
aI144
aI238
aI144
aI2
aI00
ag87
ag88
aaa(lp1991
g10
a(lp1992
I736
aI207
aI140
aI140
aNaI0
aI0
aI0
aI255
aI165
aI0
aI2
aI00
ag91
ag92
aaa(lp1993
g10
a(lp1994
I382
aI207
aI140
aI140
aNaI0
aI0
aI0
aI255
aI165
aI0
aI2
aI00
ag91
ag95
aaa(lp1995
g10
a(lp1996
I177
aI544
aI48
aI118
aNaI0
aI0
aI0
aI230
aI230
aI250
aI1
aI00
ag52
ag98
aaassI44
(dp1997
g100
(lp1998
I1
asg102
g6
sg103
(lp1999
(lp2000
g10
a(lp2001
I103
aI391
aI40
aI35
aNaI0
aI0
aI0
aI255
aI0
aI0
aI2
aI00
ag26
ag27
aaa(lp2002
g10
a(lp2003
I155
aI375
aI99
aI94
ag1283
aI0
aI0
aI0
aI30
aI144
aI255
aI2
aI00
ag31
ag32
aaa(lp2004
g10
a(lp2005
I393
aI272
aI60
aI60
aNaI0
aI0
aI0
aI230
aI230
aI250
aI2
aI00
ag12
ag35
aaa(lp2006
g10
a(lp2007
I307
aI250
aI60
aI58
ag113
aI0
aI0
aI0
aI165
aI42
aI42
aI2
aI00
ag39
ag40
aaa(lp2008
g10
a(lp2009
I392
aI226
aI60
aI60
aNaI0
aI0
aI0
aI230
aI230
aI250
aI2
aI00
ag12
ag43
aaa(lp2010
g10
a(lp2011
I752
aI219
aI60
aI60
aNaI0
aI0
aI0
aI230
aI230
aI250
aI2
aI00
ag12
ag118
aaa(lp2012
g10
a(lp2013
I798
aI219
aI60
aI60
aNaI0
aI0
aI0
aI230
aI230
aI250
aI2
aI00
ag12
ag121
aaa(lp2014
g10
a(lp2015
I895
aI218
aI48
aI118
aNaI0
aI0
aI0
aI230
aI230
aI250
aI1
aI00
ag52
ag53
aaa(lp2016
g10
a(lp2017
I671
aI214
aI48
aI118
aNaI0
aI0
aI0
aI230
aI230
aI250
aI1
aI00
ag52
ag56
aaa(lp2018
g10
a(lp2019
I392
aI144
aI118
aI48
aNaI0
aI0
aI0
aI230
aI230
aI250
aI1
aI00
ag52
ag59
aaa(lp2020
g10
a(lp2021
I390
aI358
aI118
aI48
aNaI0
aI0
aI0
aI230
aI230
aI250
aI1
aI00
ag52
ag62
aaa(lp2022
g10
a(lp2023
I757
aI358
aI101
aI63
ag65
aI0
aI0
aI0
aI160
aI32
aI240
aI2
aI00
ag66
ag67
aaa(lp2024
g10
a(lp2025
I757
aI130
aI101
aI63
ag30
aI0
aI0
aI0
aI160
aI32
aI240
aI2
aI00
ag66
ag70
aaa(lp2026
g10
a(lp2027
I535
aI230
aI63
aI101
ag73
aI0
aI0
aI0
aI160
aI32
aI240
aI2
aI00
ag66
ag74
aaa(lp2028
g10
a(lp2029
I304
aI225
aI63
aI101
ag77
aI0
aI0
aI0
aI160
aI32
aI240
aI2
aI00
ag66
ag78
aaa(lp2030
g10
a(lp2031
I75
aI576
aI60
aI150
aNaI0
aI0
aI0
aI215
aI253
aI254
aI2
aI00
ag52
ag81
aaa(lp2032
g10
a(lp2033
I74
aI485
aI60
aI150
aNaI0
aI0
aI0
aI215
aI253
aI254
aI2
aI00
ag52
ag84
aaa(lp2034
g10
a(lp2035
I11
aI464
aI140
aI280
aNaI0
aI0
aI0
aI144
aI238
aI144
aI2
aI00
ag87
ag88
aaa(lp2036
g10
a(lp2037
I736
aI207
aI140
aI140
aNaI0
aI0
aI0
aI255
aI165
aI0
aI2
aI00
ag91
ag92
aaa(lp2038
g10
a(lp2039
I382
aI207
aI140
aI140
aNaI0
aI0
aI0
aI255
aI165
aI0
aI2
aI00
ag91
ag95
aaa(lp2040
g10
a(lp2041
I177
aI544
aI48
aI118
aNaI0
aI0
aI0
aI230
aI230
aI250
aI1
aI00
ag52
ag98
aaassI45
(dp2042
g100
(lp2043
I1
asg102
g6
sg103
(lp2044
(lp2045
g10
a(lp2046
I103
aI391
aI40
aI35
aNaI0
aI0
aI0
aI255
aI0
aI0
aI2
aI00
ag26
ag27
aaa(lp2047
g10
a(lp2048
I155
aI375
aI99
aI94
aS'RIGHT'
p2049
aI0
aI0
aI0
aI30
aI144
aI255
aI2
aI00
ag31
ag32
aaa(lp2050
g10
a(lp2051
I393
aI272
aI60
aI60
aNaI0
aI0
aI0
aI230
aI230
aI250
aI2
aI00
ag12
ag35
aaa(lp2052
g10
a(lp2053
I307
aI250
aI60
aI58
ag113
aI0
aI0
aI0
aI165
aI42
aI42
aI2
aI00
ag39
ag40
aaa(lp2054
g10
a(lp2055
I392
aI226
aI60
aI60
aNaI0
aI0
aI0
aI230
aI230
aI250
aI2
aI00
ag12
ag43
aaa(lp2056
g10
a(lp2057
I752
aI219
aI60
aI60
aNaI0
aI0
aI0
aI230
aI230
aI250
aI2
aI00
ag12
ag118
aaa(lp2058
g10
a(lp2059
I798
aI219
aI60
aI60
aNaI0
aI0
aI0
aI230
aI230
aI250
aI2
aI00
ag12
ag121
aaa(lp2060
g10
a(lp2061
I895
aI218
aI48
aI118
aNaI0
aI0
aI0
aI230
aI230
aI250
aI1
aI00
ag52
ag53
aaa(lp2062
g10
a(lp2063
I671
aI214
aI48
aI118
aNaI0
aI0
aI0
aI230
aI230
aI250
aI1
aI00
ag52
ag56
aaa(lp2064
g10
a(lp2065
I392
aI144
aI118
aI48
aNaI0
aI0
aI0
aI230
aI230
aI250
aI1
aI00
ag52
ag59
aaa(lp2066
g10
a(lp2067
I390
aI358
aI118
aI48
aNaI0
aI0
aI0
aI230
aI230
aI250
aI1
aI00
ag52
ag62
aaa(lp2068
g10
a(lp2069
I757
aI358
aI101
aI63
ag65
aI0
aI0
aI0
aI160
aI32
aI240
aI2
aI00
ag66
ag67
aaa(lp2070
g10
a(lp2071
I757
aI130
aI101
aI63
ag30
aI0
aI0
aI0
aI160
aI32
aI240
aI2
aI00
ag66
ag70
aaa(lp2072
g10
a(lp2073
I535
aI230
aI63
aI101
ag73
aI0
aI0
aI0
aI160
aI32
aI240
aI2
aI00
ag66
ag74
aaa(lp2074
g10
a(lp2075
I304
aI225
aI63
aI101
ag77
aI0
aI0
aI0
aI160
aI32
aI240
aI2
aI00
ag66
ag78
aaa(lp2076
g10
a(lp2077
I75
aI576
aI60
aI150
aNaI0
aI0
aI0
aI215
aI253
aI254
aI2
aI00
ag52
ag81
aaa(lp2078
g10
a(lp2079
I74
aI485
aI60
aI150
aNaI0
aI0
aI0
aI215
aI253
aI254
aI2
aI00
ag52
ag84
aaa(lp2080
g10
a(lp2081
I11
aI464
aI140
aI280
aNaI0
aI0
aI0
aI144
aI238
aI144
aI2
aI00
ag87
ag88
aaa(lp2082
g10
a(lp2083
I736
aI207
aI140
aI140
aNaI0
aI0
aI0
aI255
aI165
aI0
aI2
aI00
ag91
ag92
aaa(lp2084
g10
a(lp2085
I382
aI207
aI140
aI140
aNaI0
aI0
aI0
aI255
aI165
aI0
aI2
aI00
ag91
ag95
aaa(lp2086
g10
a(lp2087
I177
aI544
aI48
aI118
aNaI0
aI0
aI0
aI230
aI230
aI250
aI1
aI00
ag52
ag98
aaassI46
(dp2088
g100
(lp2089
I1
asg102
g6
sg103
(lp2090
(lp2091
g10
a(lp2092
I103
aI391
aI40
aI35
aNaI0
aI0
aI0
aI255
aI0
aI0
aI2
aI00
ag26
ag27
aaa(lp2093
g10
a(lp2094
I155
aI375
aI99
aI94
ag2049
aI0
aI0
aI0
aI30
aI144
aI255
aI2
aI00
ag31
ag32
aaa(lp2095
g10
a(lp2096
I393
aI272
aI60
aI60
aNaI0
aI0
aI0
aI230
aI230
aI250
aI2
aI00
ag12
ag35
aaa(lp2097
g10
a(lp2098
I307
aI250
aI60
aI58
ag113
aI0
aI0
aI0
aI165
aI42
aI42
aI2
aI00
ag39
ag40
aaa(lp2099
g10
a(lp2100
I392
aI226
aI60
aI60
aNaI0
aI0
aI0
aI230
aI230
aI250
aI2
aI00
ag12
ag43
aaa(lp2101
g10
a(lp2102
I752
aI219
aI60
aI60
aNaI0
aI0
aI0
aI230
aI230
aI250
aI2
aI00
ag12
ag118
aaa(lp2103
g10
a(lp2104
I798
aI219
aI60
aI60
aNaI0
aI0
aI0
aI230
aI230
aI250
aI2
aI00
ag12
ag121
aaa(lp2105
g10
a(lp2106
I895
aI218
aI48
aI118
aNaI0
aI0
aI0
aI230
aI230
aI250
aI1
aI00
ag52
ag53
aaa(lp2107
g10
a(lp2108
I671
aI214
aI48
aI118
aNaI0
aI0
aI0
aI230
aI230
aI250
aI1
aI00
ag52
ag56
aaa(lp2109
g10
a(lp2110
I392
aI144
aI118
aI48
aNaI0
aI0
aI0
aI230
aI230
aI250
aI1
aI00
ag52
ag59
aaa(lp2111
g10
a(lp2112
I390
aI358
aI118
aI48
aNaI0
aI0
aI0
aI230
aI230
aI250
aI1
aI00
ag52
ag62
aaa(lp2113
g10
a(lp2114
I757
aI358
aI101
aI63
ag65
aI0
aI0
aI0
aI160
aI32
aI240
aI2
aI00
ag66
ag67
aaa(lp2115
g10
a(lp2116
I757
aI130
aI101
aI63
ag30
aI0
aI0
aI0
aI160
aI32
aI240
aI2
aI00
ag66
ag70
aaa(lp2117
g10
a(lp2118
I535
aI230
aI63
aI101
ag73
aI0
aI0
aI0
aI160
aI32
aI240
aI2
aI00
ag66
ag74
aaa(lp2119
g10
a(lp2120
I304
aI225
aI63
aI101
ag77
aI0
aI0
aI0
aI160
aI32
aI240
aI2
aI00
ag66
ag78
aaa(lp2121
g10
a(lp2122
I75
aI576
aI60
aI150
aNaI0
aI0
aI0
aI215
aI253
aI254
aI2
aI00
ag52
ag81
aaa(lp2123
g10
a(lp2124
I74
aI485
aI60
aI150
aNaI0
aI0
aI0
aI215
aI253
aI254
aI2
aI00
ag52
ag84
aaa(lp2125
g10
a(lp2126
I11
aI464
aI140
aI280
aNaI0
aI0
aI0
aI144
aI238
aI144
aI2
aI00
ag87
ag88
aaa(lp2127
g10
a(lp2128
I736
aI207
aI140
aI140
aNaI0
aI0
aI0
aI255
aI165
aI0
aI2
aI00
ag91
ag92
aaa(lp2129
g10
a(lp2130
I382
aI207
aI140
aI140
aNaI0
aI0
aI0
aI255
aI165
aI0
aI2
aI00
ag91
ag95
aaa(lp2131
g10
a(lp2132
I177
aI544
aI48
aI118
aNaI0
aI0
aI0
aI230
aI230
aI250
aI1
aI00
ag52
ag98
aaassI47
(dp2133
g100
(lp2134
I1
asg102
g6
sg103
(lp2135
(lp2136
g10
a(lp2137
I104
aI391
aI40
aI35
aNaI0
aI0
aI0
aI255
aI0
aI0
aI2
aI00
ag26
ag27
aaa(lp2138
g10
a(lp2139
I156
aI375
aI99
aI94
ag2049
aI0
aI0
aI0
aI30
aI144
aI255
aI2
aI00
ag31
ag32
aaa(lp2140
g10
a(lp2141
I393
aI272
aI60
aI60
aNaI0
aI0
aI0
aI230
aI230
aI250
aI2
aI00
ag12
ag35
aaa(lp2142
g10
a(lp2143
I307
aI250
aI60
aI58
ag113
aI0
aI0
aI0
aI165
aI42
aI42
aI2
aI00
ag39
ag40
aaa(lp2144
g10
a(lp2145
I392
aI226
aI60
aI60
aNaI0
aI0
aI0
aI230
aI230
aI250
aI2
aI00
ag12
ag43
aaa(lp2146
g10
a(lp2147
I752
aI219
aI60
aI60
aNaI0
aI0
aI0
aI230
aI230
aI250
aI2
aI00
ag12
ag118
aaa(lp2148
g10
a(lp2149
I798
aI219
aI60
aI60
aNaI0
aI0
aI0
aI230
aI230
aI250
aI2
aI00
ag12
ag121
aaa(lp2150
g10
a(lp2151
I895
aI218
aI48
aI118
aNaI0
aI0
aI0
aI230
aI230
aI250
aI1
aI00
ag52
ag53
aaa(lp2152
g10
a(lp2153
I671
aI214
aI48
aI118
aNaI0
aI0
aI0
aI230
aI230
aI250
aI1
aI00
ag52
ag56
aaa(lp2154
g10
a(lp2155
I392
aI144
aI118
aI48
aNaI0
aI0
aI0
aI230
aI230
aI250
aI1
aI00
ag52
ag59
aaa(lp2156
g10
a(lp2157
I390
aI358
aI118
aI48
aNaI0
aI0
aI0
aI230
aI230
aI250
aI1
aI00
ag52
ag62
aaa(lp2158
g10
a(lp2159
I757
aI358
aI101
aI63
ag65
aI0
aI0
aI0
aI160
aI32
aI240
aI2
aI00
ag66
ag67
aaa(lp2160
g10
a(lp2161
I757
aI130
aI101
aI63
ag30
aI0
aI0
aI0
aI160
aI32
aI240
aI2
aI00
ag66
ag70
aaa(lp2162
g10
a(lp2163
I535
aI230
aI63
aI101
ag73
aI0
aI0
aI0
aI160
aI32
aI240
aI2
aI00
ag66
ag74
aaa(lp2164
g10
a(lp2165
I304
aI225
aI63
aI101
ag77
aI0
aI0
aI0
aI160
aI32
aI240
aI2
aI00
ag66
ag78
aaa(lp2166
g10
a(lp2167
I75
aI576
aI60
aI150
aNaI0
aI0
aI0
aI215
aI253
aI254
aI2
aI00
ag52
ag81
aaa(lp2168
g10
a(lp2169
I74
aI485
aI60
aI150
aNaI0
aI0
aI0
aI215
aI253
aI254
aI2
aI00
ag52
ag84
aaa(lp2170
g10
a(lp2171
I11
aI464
aI140
aI280
aNaI0
aI0
aI0
aI144
aI238
aI144
aI2
aI00
ag87
ag88
aaa(lp2172
g10
a(lp2173
I736
aI207
aI140
aI140
aNaI0
aI0
aI0
aI255
aI165
aI0
aI2
aI00
ag91
ag92
aaa(lp2174
g10
a(lp2175
I382
aI207
aI140
aI140
aNaI0
aI0
aI0
aI255
aI165
aI0
aI2
aI00
ag91
ag95
aaa(lp2176
g10
a(lp2177
I177
aI544
aI48
aI118
aNaI0
aI0
aI0
aI230
aI230
aI250
aI1
aI00
ag52
ag98
aaassI48
(dp2178
g100
(lp2179
I1
asg102
g6
sg103
(lp2180
(lp2181
g10
a(lp2182
I133
aI391
aI40
aI35
aNaI0
aI0
aI0
aI255
aI0
aI0
aI2
aI00
ag26
ag27
aaa(lp2183
g10
a(lp2184
I185
aI375
aI99
aI94
ag2049
aI0
aI0
aI0
aI30
aI144
aI255
aI2
aI00
ag31
ag32
aaa(lp2185
g10
a(lp2186
I393
aI272
aI60
aI60
aNaI0
aI0
aI0
aI230
aI230
aI250
aI2
aI00
ag12
ag35
aaa(lp2187
g10
a(lp2188
I307
aI250
aI60
aI58
ag113
aI0
aI0
aI0
aI165
aI42
aI42
aI2
aI00
ag39
ag40
aaa(lp2189
g10
a(lp2190
I392
aI226
aI60
aI60
aNaI0
aI0
aI0
aI230
aI230
aI250
aI2
aI00
ag12
ag43
aaa(lp2191
g10
a(lp2192
I752
aI219
aI60
aI60
aNaI0
aI0
aI0
aI230
aI230
aI250
aI2
aI00
ag12
ag118
aaa(lp2193
g10
a(lp2194
I798
aI219
aI60
aI60
aNaI0
aI0
aI0
aI230
aI230
aI250
aI2
aI00
ag12
ag121
aaa(lp2195
g10
a(lp2196
I895
aI218
aI48
aI118
aNaI0
aI0
aI0
aI230
aI230
aI250
aI1
aI00
ag52
ag53
aaa(lp2197
g10
a(lp2198
I671
aI214
aI48
aI118
aNaI0
aI0
aI0
aI230
aI230
aI250
aI1
aI00
ag52
ag56
aaa(lp2199
g10
a(lp2200
I392
aI144
aI118
aI48
aNaI0
aI0
aI0
aI230
aI230
aI250
aI1
aI00
ag52
ag59
aaa(lp2201
g10
a(lp2202
I390
aI358
aI118
aI48
aNaI0
aI0
aI0
aI230
aI230
aI250
aI1
aI00
ag52
ag62
aaa(lp2203
g10
a(lp2204
I757
aI358
aI101
aI63
ag65
aI0
aI0
aI0
aI160
aI32
aI240
aI2
aI00
ag66
ag67
aaa(lp2205
g10
a(lp2206
I757
aI130
aI101
aI63
ag30
aI0
aI0
aI0
aI160
aI32
aI240
aI2
aI00
ag66
ag70
aaa(lp2207
g10
a(lp2208
I535
aI230
aI63
aI101
ag73
aI0
aI0
aI0
aI160
aI32
aI240
aI2
aI00
ag66
ag74
aaa(lp2209
g10
a(lp2210
I304
aI225
aI63
aI101
ag77
aI0
aI0
aI0
aI160
aI32
aI240
aI2
aI00
ag66
ag78
aaa(lp2211
g10
a(lp2212
I75
aI576
aI60
aI150
aNaI0
aI0
aI0
aI215
aI253
aI254
aI2
aI00
ag52
ag81
aaa(lp2213
g10
a(lp2214
I74
aI485
aI60
aI150
aNaI0
aI0
aI0
aI215
aI253
aI254
aI2
aI00
ag52
ag84
aaa(lp2215
g10
a(lp2216
I11
aI464
aI140
aI280
aNaI0
aI0
aI0
aI144
aI238
aI144
aI2
aI00
ag87
ag88
aaa(lp2217
g10
a(lp2218
I736
aI207
aI140
aI140
aNaI0
aI0
aI0
aI255
aI165
aI0
aI2
aI00
ag91
ag92
aaa(lp2219
g10
a(lp2220
I382
aI207
aI140
aI140
aNaI0
aI0
aI0
aI255
aI165
aI0
aI2
aI00
ag91
ag95
aaa(lp2221
g10
a(lp2222
I177
aI544
aI48
aI118
aNaI0
aI0
aI0
aI230
aI230
aI250
aI1
aI00
ag52
ag98
aaassI49
(dp2223
g100
(lp2224
I1
asg102
g6
sg103
(lp2225
(lp2226
g10
a(lp2227
I164
aI391
aI40
aI35
aNaI0
aI0
aI0
aI255
aI0
aI0
aI2
aI00
ag26
ag27
aaa(lp2228
g10
a(lp2229
I216
aI375
aI99
aI94
ag2049
aI0
aI0
aI0
aI30
aI144
aI255
aI2
aI00
ag31
ag32
aaa(lp2230
g10
a(lp2231
I393
aI272
aI60
aI60
aNaI0
aI0
aI0
aI230
aI230
aI250
aI2
aI00
ag12
ag35
aaa(lp2232
g10
a(lp2233
I307
aI250
aI60
aI58
ag113
aI0
aI0
aI0
aI165
aI42
aI42
aI2
aI00
ag39
ag40
aaa(lp2234
g10
a(lp2235
I392
aI226
aI60
aI60
aNaI0
aI0
aI0
aI230
aI230
aI250
aI2
aI00
ag12
ag43
aaa(lp2236
g10
a(lp2237
I752
aI219
aI60
aI60
aNaI0
aI0
aI0
aI230
aI230
aI250
aI2
aI00
ag12
ag118
aaa(lp2238
g10
a(lp2239
I798
aI219
aI60
aI60
aNaI0
aI0
aI0
aI230
aI230
aI250
aI2
aI00
ag12
ag121
aaa(lp2240
g10
a(lp2241
I895
aI218
aI48
aI118
aNaI0
aI0
aI0
aI230
aI230
aI250
aI1
aI00
ag52
ag53
aaa(lp2242
g10
a(lp2243
I671
aI214
aI48
aI118
aNaI0
aI0
aI0
aI230
aI230
aI250
aI1
aI00
ag52
ag56
aaa(lp2244
g10
a(lp2245
I392
aI144
aI118
aI48
aNaI0
aI0
aI0
aI230
aI230
aI250
aI1
aI00
ag52
ag59
aaa(lp2246
g10
a(lp2247
I390
aI358
aI118
aI48
aNaI0
aI0
aI0
aI230
aI230
aI250
aI1
aI00
ag52
ag62
aaa(lp2248
g10
a(lp2249
I757
aI358
aI101
aI63
ag65
aI0
aI0
aI0
aI160
aI32
aI240
aI2
aI00
ag66
ag67
aaa(lp2250
g10
a(lp2251
I757
aI130
aI101
aI63
ag30
aI0
aI0
aI0
aI160
aI32
aI240
aI2
aI00
ag66
ag70
aaa(lp2252
g10
a(lp2253
I535
aI230
aI63
aI101
ag73
aI0
aI0
aI0
aI160
aI32
aI240
aI2
aI00
ag66
ag74
aaa(lp2254
g10
a(lp2255
I304
aI225
aI63
aI101
ag77
aI0
aI0
aI0
aI160
aI32
aI240
aI2
aI00
ag66
ag78
aaa(lp2256
g10
a(lp2257
I75
aI576
aI60
aI150
aNaI0
aI0
aI0
aI215
aI253
aI254
aI2
aI00
ag52
ag81
aaa(lp2258
g10
a(lp2259
I74
aI485
aI60
aI150
aNaI0
aI0
aI0
aI215
aI253
aI254
aI2
aI00
ag52
ag84
aaa(lp2260
g10
a(lp2261
I11
aI464
aI140
aI280
aNaI0
aI0
aI0
aI144
aI238
aI144
aI2
aI00
ag87
ag88
aaa(lp2262
g10
a(lp2263
I736
aI207
aI140
aI140
aNaI0
aI0
aI0
aI255
aI165
aI0
aI2
aI00
ag91
ag92
aaa(lp2264
g10
a(lp2265
I382
aI207
aI140
aI140
aNaI0
aI0
aI0
aI255
aI165
aI0
aI2
aI00
ag91
ag95
aaa(lp2266
g10
a(lp2267
I177
aI544
aI48
aI118
aNaI0
aI0
aI0
aI230
aI230
aI250
aI1
aI00
ag52
ag98
aaassI50
(dp2268
g100
(lp2269
I1
asg102
g6
sg103
(lp2270
(lp2271
g10
a(lp2272
I194
aI391
aI40
aI35
aNaI0
aI0
aI0
aI255
aI0
aI0
aI2
aI00
ag26
ag27
aaa(lp2273
g10
a(lp2274
I246
aI375
aI99
aI94
ag2049
aI0
aI0
aI0
aI30
aI144
aI255
aI2
aI00
ag31
ag32
aaa(lp2275
g10
a(lp2276
I393
aI272
aI60
aI60
aNaI0
aI0
aI0
aI230
aI230
aI250
aI2
aI00
ag12
ag35
aaa(lp2277
g10
a(lp2278
I307
aI250
aI60
aI58
ag113
aI0
aI0
aI0
aI165
aI42
aI42
aI2
aI00
ag39
ag40
aaa(lp2279
g10
a(lp2280
I392
aI226
aI60
aI60
aNaI0
aI0
aI0
aI230
aI230
aI250
aI2
aI00
ag12
ag43
aaa(lp2281
g10
a(lp2282
I752
aI219
aI60
aI60
aNaI0
aI0
aI0
aI230
aI230
aI250
aI2
aI00
ag12
ag118
aaa(lp2283
g10
a(lp2284
I798
aI219
aI60
aI60
aNaI0
aI0
aI0
aI230
aI230
aI250
aI2
aI00
ag12
ag121
aaa(lp2285
g10
a(lp2286
I895
aI218
aI48
aI118
aNaI0
aI0
aI0
aI230
aI230
aI250
aI1
aI00
ag52
ag53
aaa(lp2287
g10
a(lp2288
I671
aI214
aI48
aI118
aNaI0
aI0
aI0
aI230
aI230
aI250
aI1
aI00
ag52
ag56
aaa(lp2289
g10
a(lp2290
I392
aI144
aI118
aI48
aNaI0
aI0
aI0
aI230
aI230
aI250
aI1
aI00
ag52
ag59
aaa(lp2291
g10
a(lp2292
I390
aI358
aI118
aI48
aNaI0
aI0
aI0
aI230
aI230
aI250
aI1
aI00
ag52
ag62
aaa(lp2293
g10
a(lp2294
I757
aI358
aI101
aI63
ag65
aI0
aI0
aI0
aI160
aI32
aI240
aI2
aI00
ag66
ag67
aaa(lp2295
g10
a(lp2296
I757
aI130
aI101
aI63
ag30
aI0
aI0
aI0
aI160
aI32
aI240
aI2
aI00
ag66
ag70
aaa(lp2297
g10
a(lp2298
I535
aI230
aI63
aI101
ag73
aI0
aI0
aI0
aI160
aI32
aI240
aI2
aI00
ag66
ag74
aaa(lp2299
g10
a(lp2300
I304
aI225
aI63
aI101
ag77
aI0
aI0
aI0
aI160
aI32
aI240
aI2
aI00
ag66
ag78
aaa(lp2301
g10
a(lp2302
I75
aI576
aI60
aI150
aNaI0
aI0
aI0
aI215
aI253
aI254
aI2
aI00
ag52
ag81
aaa(lp2303
g10
a(lp2304
I74
aI485
aI60
aI150
aNaI0
aI0
aI0
aI215
aI253
aI254
aI2
aI00
ag52
ag84
aaa(lp2305
g10
a(lp2306
I11
aI464
aI140
aI280
aNaI0
aI0
aI0
aI144
aI238
aI144
aI2
aI00
ag87
ag88
aaa(lp2307
g10
a(lp2308
I736
aI207
aI140
aI140
aNaI0
aI0
aI0
aI255
aI165
aI0
aI2
aI00
ag91
ag92
aaa(lp2309
g10
a(lp2310
I382
aI207
aI140
aI140
aNaI0
aI0
aI0
aI255
aI165
aI0
aI2
aI00
ag91
ag95
aaa(lp2311
g10
a(lp2312
I177
aI544
aI48
aI118
aNaI0
aI0
aI0
aI230
aI230
aI250
aI1
aI00
ag52
ag98
aaassI51
(dp2313
g100
(lp2314
I1
asg102
g6
sg103
(lp2315
(lp2316
g10
a(lp2317
I225
aI391
aI40
aI35
aNaI0
aI0
aI0
aI255
aI0
aI0
aI2
aI00
ag26
ag27
aaa(lp2318
g10
a(lp2319
I277
aI375
aI99
aI94
ag2049
aI0
aI0
aI0
aI30
aI144
aI255
aI2
aI00
ag31
ag32
aaa(lp2320
g10
a(lp2321
I393
aI272
aI60
aI60
aNaI0
aI0
aI0
aI230
aI230
aI250
aI2
aI00
ag12
ag35
aaa(lp2322
g10
a(lp2323
I307
aI250
aI60
aI58
ag113
aI0
aI0
aI0
aI165
aI42
aI42
aI2
aI00
ag39
ag40
aaa(lp2324
g10
a(lp2325
I392
aI226
aI60
aI60
aNaI0
aI0
aI0
aI230
aI230
aI250
aI2
aI00
ag12
ag43
aaa(lp2326
g10
a(lp2327
I752
aI219
aI60
aI60
aNaI0
aI0
aI0
aI230
aI230
aI250
aI2
aI00
ag12
ag118
aaa(lp2328
g10
a(lp2329
I798
aI219
aI60
aI60
aNaI0
aI0
aI0
aI230
aI230
aI250
aI2
aI00
ag12
ag121
aaa(lp2330
g10
a(lp2331
I895
aI218
aI48
aI118
aNaI0
aI0
aI0
aI230
aI230
aI250
aI1
aI00
ag52
ag53
aaa(lp2332
g10
a(lp2333
I671
aI214
aI48
aI118
aNaI0
aI0
aI0
aI230
aI230
aI250
aI1
aI00
ag52
ag56
aaa(lp2334
g10
a(lp2335
I392
aI144
aI118
aI48
aNaI0
aI0
aI0
aI230
aI230
aI250
aI1
aI00
ag52
ag59
aaa(lp2336
g10
a(lp2337
I390
aI358
aI118
aI48
aNaI0
aI0
aI0
aI230
aI230
aI250
aI1
aI00
ag52
ag62
aaa(lp2338
g10
a(lp2339
I757
aI358
aI101
aI63
ag65
aI0
aI0
aI0
aI160
aI32
aI240
aI2
aI00
ag66
ag67
aaa(lp2340
g10
a(lp2341
I757
aI130
aI101
aI63
ag30
aI0
aI0
aI0
aI160
aI32
aI240
aI2
aI00
ag66
ag70
aaa(lp2342
g10
a(lp2343
I535
aI230
aI63
aI101
ag73
aI0
aI0
aI0
aI160
aI32
aI240
aI2
aI00
ag66
ag74
aaa(lp2344
g10
a(lp2345
I304
aI225
aI63
aI101
ag77
aI0
aI0
aI0
aI160
aI32
aI240
aI2
aI00
ag66
ag78
aaa(lp2346
g10
a(lp2347
I75
aI576
aI60
aI150
aNaI0
aI0
aI0
aI215
aI253
aI254
aI2
aI00
ag52
ag81
aaa(lp2348
g10
a(lp2349
I74
aI485
aI60
aI150
aNaI0
aI0
aI0
aI215
aI253
aI254
aI2
aI00
ag52
ag84
aaa(lp2350
g10
a(lp2351
I11
aI464
aI140
aI280
aNaI0
aI0
aI0
aI144
aI238
aI144
aI2
aI00
ag87
ag88
aaa(lp2352
g10
a(lp2353
I736
aI207
aI140
aI140
aNaI0
aI0
aI0
aI255
aI165
aI0
aI2
aI00
ag91
ag92
aaa(lp2354
g10
a(lp2355
I382
aI207
aI140
aI140
aNaI0
aI0
aI0
aI255
aI165
aI0
aI2
aI00
ag91
ag95
aaa(lp2356
g10
a(lp2357
I177
aI544
aI48
aI118
aNaI0
aI0
aI0
aI230
aI230
aI250
aI1
aI00
ag52
ag98
aaassI52
(dp2358
g100
(lp2359
I1
asg102
g6
sg103
(lp2360
(lp2361
g10
a(lp2362
I255
aI391
aI40
aI35
aNaI0
aI0
aI0
aI255
aI0
aI0
aI2
aI00
ag26
ag27
aaa(lp2363
g10
a(lp2364
I307
aI375
aI99
aI94
ag2049
aI0
aI0
aI0
aI30
aI144
aI255
aI2
aI00
ag31
ag32
aaa(lp2365
g10
a(lp2366
I393
aI272
aI60
aI60
aNaI0
aI0
aI0
aI230
aI230
aI250
aI2
aI00
ag12
ag35
aaa(lp2367
g10
a(lp2368
I307
aI250
aI60
aI58
ag113
aI0
aI0
aI0
aI165
aI42
aI42
aI2
aI00
ag39
ag40
aaa(lp2369
g10
a(lp2370
I392
aI226
aI60
aI60
aNaI0
aI0
aI0
aI230
aI230
aI250
aI2
aI00
ag12
ag43
aaa(lp2371
g10
a(lp2372
I752
aI219
aI60
aI60
aNaI0
aI0
aI0
aI230
aI230
aI250
aI2
aI00
ag12
ag118
aaa(lp2373
g10
a(lp2374
I798
aI219
aI60
aI60
aNaI0
aI0
aI0
aI230
aI230
aI250
aI2
aI00
ag12
ag121
aaa(lp2375
g10
a(lp2376
I895
aI218
aI48
aI118
aNaI0
aI0
aI0
aI230
aI230
aI250
aI1
aI00
ag52
ag53
aaa(lp2377
g10
a(lp2378
I671
aI214
aI48
aI118
aNaI0
aI0
aI0
aI230
aI230
aI250
aI1
aI00
ag52
ag56
aaa(lp2379
g10
a(lp2380
I392
aI144
aI118
aI48
aNaI0
aI0
aI0
aI230
aI230
aI250
aI1
aI00
ag52
ag59
aaa(lp2381
g10
a(lp2382
I390
aI358
aI118
aI48
aNaI0
aI0
aI0
aI230
aI230
aI250
aI1
aI00
ag52
ag62
aaa(lp2383
g10
a(lp2384
I757
aI358
aI101
aI63
ag65
aI0
aI0
aI0
aI160
aI32
aI240
aI2
aI00
ag66
ag67
aaa(lp2385
g10
a(lp2386
I757
aI130
aI101
aI63
ag30
aI0
aI0
aI0
aI160
aI32
aI240
aI2
aI00
ag66
ag70
aaa(lp2387
g10
a(lp2388
I535
aI230
aI63
aI101
ag73
aI0
aI0
aI0
aI160
aI32
aI240
aI2
aI00
ag66
ag74
aaa(lp2389
g10
a(lp2390
I304
aI225
aI63
aI101
ag77
aI0
aI0
aI0
aI160
aI32
aI240
aI2
aI00
ag66
ag78
aaa(lp2391
g10
a(lp2392
I75
aI576
aI60
aI150
aNaI0
aI0
aI0
aI215
aI253
aI254
aI2
aI00
ag52
ag81
aaa(lp2393
g10
a(lp2394
I74
aI485
aI60
aI150
aNaI0
aI0
aI0
aI215
aI253
aI254
aI2
aI00
ag52
ag84
aaa(lp2395
g10
a(lp2396
I11
aI464
aI140
aI280
aNaI0
aI0
aI0
aI144
aI238
aI144
aI2
aI00
ag87
ag88
aaa(lp2397
g10
a(lp2398
I736
aI207
aI140
aI140
aNaI0
aI0
aI0
aI255
aI165
aI0
aI2
aI00
ag91
ag92
aaa(lp2399
g10
a(lp2400
I382
aI207
aI140
aI140
aNaI0
aI0
aI0
aI255
aI165
aI0
aI2
aI00
ag91
ag95
aaa(lp2401
g10
a(lp2402
I177
aI544
aI48
aI118
aNaI0
aI0
aI0
aI230
aI230
aI250
aI1
aI00
ag52
ag98
aaassI53
(dp2403
g100
(lp2404
I1
asg102
g6
sg103
(lp2405
(lp2406
g10
a(lp2407
I286
aI391
aI40
aI35
aNaI0
aI0
aI0
aI255
aI0
aI0
aI2
aI00
ag26
ag27
aaa(lp2408
g10
a(lp2409
I338
aI375
aI99
aI94
ag2049
aI0
aI0
aI0
aI30
aI144
aI255
aI2
aI00
ag31
ag32
aaa(lp2410
g10
a(lp2411
I393
aI272
aI60
aI60
aNaI0
aI0
aI0
aI230
aI230
aI250
aI2
aI00
ag12
ag35
aaa(lp2412
g10
a(lp2413
I307
aI250
aI60
aI58
ag113
aI0
aI0
aI0
aI165
aI42
aI42
aI2
aI00
ag39
ag40
aaa(lp2414
g10
a(lp2415
I392
aI226
aI60
aI60
aNaI0
aI0
aI0
aI230
aI230
aI250
aI2
aI00
ag12
ag43
aaa(lp2416
g10
a(lp2417
I752
aI219
aI60
aI60
aNaI0
aI0
aI0
aI230
aI230
aI250
aI2
aI00
ag12
ag118
aaa(lp2418
g10
a(lp2419
I798
aI219
aI60
aI60
aNaI0
aI0
aI0
aI230
aI230
aI250
aI2
aI00
ag12
ag121
aaa(lp2420
g10
a(lp2421
I895
aI218
aI48
aI118
aNaI0
aI0
aI0
aI230
aI230
aI250
aI1
aI00
ag52
ag53
aaa(lp2422
g10
a(lp2423
I671
aI214
aI48
aI118
aNaI0
aI0
aI0
aI230
aI230
aI250
aI1
aI00
ag52
ag56
aaa(lp2424
g10
a(lp2425
I392
aI144
aI118
aI48
aNaI0
aI0
aI0
aI230
aI230
aI250
aI1
aI00
ag52
ag59
aaa(lp2426
g10
a(lp2427
I390
aI358
aI118
aI48
aNaI0
aI0
aI0
aI230
aI230
aI250
aI1
aI00
ag52
ag62
aaa(lp2428
g10
a(lp2429
I757
aI358
aI101
aI63
ag65
aI0
aI0
aI0
aI160
aI32
aI240
aI2
aI00
ag66
ag67
aaa(lp2430
g10
a(lp2431
I757
aI130
aI101
aI63
ag30
aI0
aI0
aI0
aI160
aI32
aI240
aI2
aI00
ag66
ag70
aaa(lp2432
g10
a(lp2433
I535
aI230
aI63
aI101
ag73
aI0
aI0
aI0
aI160
aI32
aI240
aI2
aI00
ag66
ag74
aaa(lp2434
g10
a(lp2435
I304
aI225
aI63
aI101
ag77
aI0
aI0
aI0
aI160
aI32
aI240
aI2
aI00
ag66
ag78
aaa(lp2436
g10
a(lp2437
I75
aI576
aI60
aI150
aNaI0
aI0
aI0
aI215
aI253
aI254
aI2
aI00
ag52
ag81
aaa(lp2438
g10
a(lp2439
I74
aI485
aI60
aI150
aNaI0
aI0
aI0
aI215
aI253
aI254
aI2
aI00
ag52
ag84
aaa(lp2440
g10
a(lp2441
I11
aI464
aI140
aI280
aNaI0
aI0
aI0
aI144
aI238
aI144
aI2
aI00
ag87
ag88
aaa(lp2442
g10
a(lp2443
I736
aI207
aI140
aI140
aNaI0
aI0
aI0
aI255
aI165
aI0
aI2
aI00
ag91
ag92
aaa(lp2444
g10
a(lp2445
I382
aI207
aI140
aI140
aNaI0
aI0
aI0
aI255
aI165
aI0
aI2
aI00
ag91
ag95
aaa(lp2446
g10
a(lp2447
I177
aI544
aI48
aI118
aNaI0
aI0
aI0
aI230
aI230
aI250
aI1
aI00
ag52
ag98
aaassI54
(dp2448
g100
(lp2449
I1
asg102
g6
sg103
(lp2450
(lp2451
g10
a(lp2452
I316
aI391
aI40
aI35
aNaI0
aI0
aI0
aI255
aI0
aI0
aI2
aI00
ag26
ag27
aaa(lp2453
g10
a(lp2454
I368
aI375
aI99
aI94
ag2049
aI0
aI0
aI0
aI30
aI144
aI255
aI2
aI00
ag31
ag32
aaa(lp2455
g10
a(lp2456
I393
aI272
aI60
aI60
aNaI0
aI0
aI0
aI230
aI230
aI250
aI2
aI00
ag12
ag35
aaa(lp2457
g10
a(lp2458
I307
aI250
aI60
aI58
ag113
aI0
aI0
aI0
aI165
aI42
aI42
aI2
aI00
ag39
ag40
aaa(lp2459
g10
a(lp2460
I392
aI226
aI60
aI60
aNaI0
aI0
aI0
aI230
aI230
aI250
aI2
aI00
ag12
ag43
aaa(lp2461
g10
a(lp2462
I752
aI219
aI60
aI60
aNaI0
aI0
aI0
aI230
aI230
aI250
aI2
aI00
ag12
ag118
aaa(lp2463
g10
a(lp2464
I798
aI219
aI60
aI60
aNaI0
aI0
aI0
aI230
aI230
aI250
aI2
aI00
ag12
ag121
aaa(lp2465
g10
a(lp2466
I895
aI218
aI48
aI118
aNaI0
aI0
aI0
aI230
aI230
aI250
aI1
aI00
ag52
ag53
aaa(lp2467
g10
a(lp2468
I671
aI214
aI48
aI118
aNaI0
aI0
aI0
aI230
aI230
aI250
aI1
aI00
ag52
ag56
aaa(lp2469
g10
a(lp2470
I392
aI144
aI118
aI48
aNaI0
aI0
aI0
aI230
aI230
aI250
aI1
aI00
ag52
ag59
aaa(lp2471
g10
a(lp2472
I390
aI358
aI118
aI48
aNaI0
aI0
aI0
aI230
aI230
aI250
aI1
aI00
ag52
ag62
aaa(lp2473
g10
a(lp2474
I757
aI358
aI101
aI63
ag65
aI0
aI0
aI0
aI160
aI32
aI240
aI2
aI00
ag66
ag67
aaa(lp2475
g10
a(lp2476
I757
aI130
aI101
aI63
ag30
aI0
aI0
aI0
aI160
aI32
aI240
aI2
aI00
ag66
ag70
aaa(lp2477
g10
a(lp2478
I535
aI230
aI63
aI101
ag73
aI0
aI0
aI0
aI160
aI32
aI240
aI2
aI00
ag66
ag74
aaa(lp2479
g10
a(lp2480
I304
aI225
aI63
aI101
ag77
aI0
aI0
aI0
aI160
aI32
aI240
aI2
aI00
ag66
ag78
aaa(lp2481
g10
a(lp2482
I75
aI576
aI60
aI150
aNaI0
aI0
aI0
aI215
aI253
aI254
aI2
aI00
ag52
ag81
aaa(lp2483
g10
a(lp2484
I74
aI485
aI60
aI150
aNaI0
aI0
aI0
aI215
aI253
aI254
aI2
aI00
ag52
ag84
aaa(lp2485
g10
a(lp2486
I11
aI464
aI140
aI280
aNaI0
aI0
aI0
aI144
aI238
aI144
aI2
aI00
ag87
ag88
aaa(lp2487
g10
a(lp2488
I736
aI207
aI140
aI140
aNaI0
aI0
aI0
aI255
aI165
aI0
aI2
aI00
ag91
ag92
aaa(lp2489
g10
a(lp2490
I382
aI207
aI140
aI140
aNaI0
aI0
aI0
aI255
aI165
aI0
aI2
aI00
ag91
ag95
aaa(lp2491
g10
a(lp2492
I177
aI544
aI48
aI118
aNaI0
aI0
aI0
aI230
aI230
aI250
aI1
aI00
ag52
ag98
aaassI55
(dp2493
g100
(lp2494
I1
asg102
g6
sg103
(lp2495
(lp2496
g10
a(lp2497
I335
aI391
aI40
aI35
aNaI0
aI0
aI0
aI255
aI0
aI0
aI2
aI00
ag26
ag27
aaa(lp2498
g10
a(lp2499
I387
aI375
aI99
aI94
ag2049
aI0
aI0
aI0
aI30
aI144
aI255
aI2
aI00
ag31
ag32
aaa(lp2500
g10
a(lp2501
I393
aI272
aI60
aI60
aNaI0
aI0
aI0
aI230
aI230
aI250
aI2
aI00
ag12
ag35
aaa(lp2502
g10
a(lp2503
I307
aI250
aI60
aI58
ag113
aI0
aI0
aI0
aI165
aI42
aI42
aI2
aI00
ag39
ag40
aaa(lp2504
g10
a(lp2505
I392
aI226
aI60
aI60
aNaI0
aI0
aI0
aI230
aI230
aI250
aI2
aI00
ag12
ag43
aaa(lp2506
g10
a(lp2507
I752
aI219
aI60
aI60
aNaI0
aI0
aI0
aI230
aI230
aI250
aI2
aI00
ag12
ag118
aaa(lp2508
g10
a(lp2509
I798
aI219
aI60
aI60
aNaI0
aI0
aI0
aI230
aI230
aI250
aI2
aI00
ag12
ag121
aaa(lp2510
g10
a(lp2511
I895
aI218
aI48
aI118
aNaI0
aI0
aI0
aI230
aI230
aI250
aI1
aI00
ag52
ag53
aaa(lp2512
g10
a(lp2513
I671
aI214
aI48
aI118
aNaI0
aI0
aI0
aI230
aI230
aI250
aI1
aI00
ag52
ag56
aaa(lp2514
g10
a(lp2515
I392
aI144
aI118
aI48
aNaI0
aI0
aI0
aI230
aI230
aI250
aI1
aI00
ag52
ag59
aaa(lp2516
g10
a(lp2517
I390
aI358
aI118
aI48
aNaI0
aI0
aI0
aI230
aI230
aI250
aI1
aI00
ag52
ag62
aaa(lp2518
g10
a(lp2519
I757
aI358
aI101
aI63
ag65
aI0
aI0
aI0
aI160
aI32
aI240
aI2
aI00
ag66
ag67
aaa(lp2520
g10
a(lp2521
I757
aI130
aI101
aI63
ag30
aI0
aI0
aI0
aI160
aI32
aI240
aI2
aI00
ag66
ag70
aaa(lp2522
g10
a(lp2523
I535
aI230
aI63
aI101
ag73
aI0
aI0
aI0
aI160
aI32
aI240
aI2
aI00
ag66
ag74
aaa(lp2524
g10
a(lp2525
I304
aI225
aI63
aI101
ag77
aI0
aI0
aI0
aI160
aI32
aI240
aI2
aI00
ag66
ag78
aaa(lp2526
g10
a(lp2527
I75
aI576
aI60
aI150
aNaI0
aI0
aI0
aI215
aI253
aI254
aI2
aI00
ag52
ag81
aaa(lp2528
g10
a(lp2529
I74
aI485
aI60
aI150
aNaI0
aI0
aI0
aI215
aI253
aI254
aI2
aI00
ag52
ag84
aaa(lp2530
g10
a(lp2531
I11
aI464
aI140
aI280
aNaI0
aI0
aI0
aI144
aI238
aI144
aI2
aI00
ag87
ag88
aaa(lp2532
g10
a(lp2533
I736
aI207
aI140
aI140
aNaI0
aI0
aI0
aI255
aI165
aI0
aI2
aI00
ag91
ag92
aaa(lp2534
g10
a(lp2535
I382
aI207
aI140
aI140
aNaI0
aI0
aI0
aI255
aI165
aI0
aI2
aI00
ag91
ag95
aaa(lp2536
g10
a(lp2537
I177
aI544
aI48
aI118
aNaI0
aI0
aI0
aI230
aI230
aI250
aI1
aI00
ag52
ag98
aaassI56
(dp2538
g100
(lp2539
I1
asg102
g6
sg103
(lp2540
(lp2541
g10
a(lp2542
I335
aI391
aI40
aI35
aNaI0
aI0
aI0
aI255
aI0
aI0
aI2
aI00
ag26
ag27
aaa(lp2543
g10
a(lp2544
I387
aI375
aI99
aI94
ag2049
aI0
aI0
aI0
aI30
aI144
aI255
aI2
aI00
ag31
ag32
aaa(lp2545
g10
a(lp2546
I393
aI272
aI60
aI60
aNaI0
aI0
aI0
aI230
aI230
aI250
aI2
aI00
ag12
ag35
aaa(lp2547
g10
a(lp2548
I307
aI250
aI60
aI58
ag113
aI0
aI0
aI0
aI165
aI42
aI42
aI2
aI00
ag39
ag40
aaa(lp2549
g10
a(lp2550
I392
aI226
aI60
aI60
aNaI0
aI0
aI0
aI230
aI230
aI250
aI2
aI00
ag12
ag43
aaa(lp2551
g10
a(lp2552
I752
aI219
aI60
aI60
aNaI0
aI0
aI0
aI230
aI230
aI250
aI2
aI00
ag12
ag118
aaa(lp2553
g10
a(lp2554
I798
aI219
aI60
aI60
aNaI0
aI0
aI0
aI230
aI230
aI250
aI2
aI00
ag12
ag121
aaa(lp2555
g10
a(lp2556
I895
aI218
aI48
aI118
aNaI0
aI0
aI0
aI230
aI230
aI250
aI1
aI00
ag52
ag53
aaa(lp2557
g10
a(lp2558
I671
aI214
aI48
aI118
aNaI0
aI0
aI0
aI230
aI230
aI250
aI1
aI00
ag52
ag56
aaa(lp2559
g10
a(lp2560
I392
aI144
aI118
aI48
aNaI0
aI0
aI0
aI230
aI230
aI250
aI1
aI00
ag52
ag59
aaa(lp2561
g10
a(lp2562
I390
aI358
aI118
aI48
aNaI0
aI0
aI0
aI230
aI230
aI250
aI1
aI00
ag52
ag62
aaa(lp2563
g10
a(lp2564
I757
aI358
aI101
aI63
ag65
aI0
aI0
aI0
aI160
aI32
aI240
aI2
aI00
ag66
ag67
aaa(lp2565
g10
a(lp2566
I757
aI130
aI101
aI63
ag30
aI0
aI0
aI0
aI160
aI32
aI240
aI2
aI00
ag66
ag70
aaa(lp2567
g10
a(lp2568
I535
aI230
aI63
aI101
ag73
aI0
aI0
aI0
aI160
aI32
aI240
aI2
aI00
ag66
ag74
aaa(lp2569
g10
a(lp2570
I304
aI225
aI63
aI101
ag77
aI0
aI0
aI0
aI160
aI32
aI240
aI2
aI00
ag66
ag78
aaa(lp2571
g10
a(lp2572
I75
aI576
aI60
aI150
aNaI0
aI0
aI0
aI215
aI253
aI254
aI2
aI00
ag52
ag81
aaa(lp2573
g10
a(lp2574
I74
aI485
aI60
aI150
aNaI0
aI0
aI0
aI215
aI253
aI254
aI2
aI00
ag52
ag84
aaa(lp2575
g10
a(lp2576
I11
aI464
aI140
aI280
aNaI0
aI0
aI0
aI144
aI238
aI144
aI2
aI00
ag87
ag88
aaa(lp2577
g10
a(lp2578
I736
aI207
aI140
aI140
aNaI0
aI0
aI0
aI255
aI165
aI0
aI2
aI00
ag91
ag92
aaa(lp2579
g10
a(lp2580
I382
aI207
aI140
aI140
aNaI0
aI0
aI0
aI255
aI165
aI0
aI2
aI00
ag91
ag95
aaa(lp2581
g10
a(lp2582
I177
aI544
aI48
aI118
aNaI0
aI0
aI0
aI230
aI230
aI250
aI1
aI00
ag52
ag98
aaassI57
(dp2583
g100
(lp2584
I1
asg102
g6
sg103
(lp2585
(lp2586
g10
a(lp2587
I335
aI391
aI40
aI35
aNaI0
aI0
aI0
aI255
aI0
aI0
aI2
aI00
ag26
ag27
aaa(lp2588
g10
a(lp2589
I387
aI375
aI99
aI94
ag2049
aI0
aI0
aI0
aI30
aI144
aI255
aI2
aI00
ag31
ag32
aaa(lp2590
g10
a(lp2591
I393
aI272
aI60
aI60
aNaI0
aI0
aI0
aI230
aI230
aI250
aI2
aI00
ag12
ag35
aaa(lp2592
g10
a(lp2593
I307
aI250
aI60
aI58
ag113
aI0
aI0
aI0
aI165
aI42
aI42
aI2
aI00
ag39
ag40
aaa(lp2594
g10
a(lp2595
I392
aI226
aI60
aI60
aNaI0
aI0
aI0
aI230
aI230
aI250
aI2
aI00
ag12
ag43
aaa(lp2596
g10
a(lp2597
I752
aI219
aI60
aI60
aNaI0
aI0
aI0
aI230
aI230
aI250
aI2
aI00
ag12
ag118
aaa(lp2598
g10
a(lp2599
I798
aI219
aI60
aI60
aNaI0
aI0
aI0
aI230
aI230
aI250
aI2
aI00
ag12
ag121
aaa(lp2600
g10
a(lp2601
I895
aI218
aI48
aI118
aNaI0
aI0
aI0
aI230
aI230
aI250
aI1
aI00
ag52
ag53
aaa(lp2602
g10
a(lp2603
I671
aI214
aI48
aI118
aNaI0
aI0
aI0
aI230
aI230
aI250
aI1
aI00
ag52
ag56
aaa(lp2604
g10
a(lp2605
I392
aI144
aI118
aI48
aNaI0
aI0
aI0
aI230
aI230
aI250
aI1
aI00
ag52
ag59
aaa(lp2606
g10
a(lp2607
I390
aI358
aI118
aI48
aNaI0
aI0
aI0
aI230
aI230
aI250
aI1
aI00
ag52
ag62
aaa(lp2608
g10
a(lp2609
I757
aI358
aI101
aI63
ag65
aI0
aI0
aI0
aI160
aI32
aI240
aI2
aI00
ag66
ag67
aaa(lp2610
g10
a(lp2611
I757
aI130
aI101
aI63
ag30
aI0
aI0
aI0
aI160
aI32
aI240
aI2
aI00
ag66
ag70
aaa(lp2612
g10
a(lp2613
I535
aI230
aI63
aI101
ag73
aI0
aI0
aI0
aI160
aI32
aI240
aI2
aI00
ag66
ag74
aaa(lp2614
g10
a(lp2615
I304
aI225
aI63
aI101
ag77
aI0
aI0
aI0
aI160
aI32
aI240
aI2
aI00
ag66
ag78
aaa(lp2616
g10
a(lp2617
I75
aI576
aI60
aI150
aNaI0
aI0
aI0
aI215
aI253
aI254
aI2
aI00
ag52
ag81
aaa(lp2618
g10
a(lp2619
I74
aI485
aI60
aI150
aNaI0
aI0
aI0
aI215
aI253
aI254
aI2
aI00
ag52
ag84
aaa(lp2620
g10
a(lp2621
I11
aI464
aI140
aI280
aNaI0
aI0
aI0
aI144
aI238
aI144
aI2
aI00
ag87
ag88
aaa(lp2622
g10
a(lp2623
I736
aI207
aI140
aI140
aNaI0
aI0
aI0
aI255
aI165
aI0
aI2
aI00
ag91
ag92
aaa(lp2624
g10
a(lp2625
I382
aI207
aI140
aI140
aNaI0
aI0
aI0
aI255
aI165
aI0
aI2
aI00
ag91
ag95
aaa(lp2626
g10
a(lp2627
I177
aI544
aI48
aI118
aNaI0
aI0
aI0
aI230
aI230
aI250
aI1
aI00
ag52
ag98
aaassI58
(dp2628
g100
(lp2629
I1
asg102
g6
sg103
(lp2630
(lp2631
g10
a(lp2632
I335
aI391
aI40
aI35
aNaI0
aI0
aI0
aI255
aI0
aI0
aI2
aI00
ag26
ag27
aaa(lp2633
g10
a(lp2634
I387
aI375
aI99
aI94
ag2049
aI0
aI0
aI0
aI30
aI144
aI255
aI2
aI00
ag31
ag32
aaa(lp2635
g10
a(lp2636
I393
aI272
aI60
aI60
aNaI0
aI0
aI0
aI230
aI230
aI250
aI2
aI00
ag12
ag35
aaa(lp2637
g10
a(lp2638
I307
aI250
aI60
aI58
ag113
aI0
aI0
aI0
aI165
aI42
aI42
aI2
aI00
ag39
ag40
aaa(lp2639
g10
a(lp2640
I392
aI226
aI60
aI60
aNaI0
aI0
aI0
aI230
aI230
aI250
aI2
aI00
ag12
ag43
aaa(lp2641
g10
a(lp2642
I752
aI219
aI60
aI60
aNaI0
aI0
aI0
aI230
aI230
aI250
aI2
aI00
ag12
ag118
aaa(lp2643
g10
a(lp2644
I798
aI219
aI60
aI60
aNaI0
aI0
aI0
aI230
aI230
aI250
aI2
aI00
ag12
ag121
aaa(lp2645
g10
a(lp2646
I895
aI218
aI48
aI118
aNaI0
aI0
aI0
aI230
aI230
aI250
aI1
aI00
ag52
ag53
aaa(lp2647
g10
a(lp2648
I671
aI214
aI48
aI118
aNaI0
aI0
aI0
aI230
aI230
aI250
aI1
aI00
ag52
ag56
aaa(lp2649
g10
a(lp2650
I392
aI144
aI118
aI48
aNaI0
aI0
aI0
aI230
aI230
aI250
aI1
aI00
ag52
ag59
aaa(lp2651
g10
a(lp2652
I390
aI358
aI118
aI48
aNaI0
aI0
aI0
aI230
aI230
aI250
aI1
aI00
ag52
ag62
aaa(lp2653
g10
a(lp2654
I757
aI358
aI101
aI63
ag65
aI0
aI0
aI0
aI160
aI32
aI240
aI2
aI00
ag66
ag67
aaa(lp2655
g10
a(lp2656
I757
aI130
aI101
aI63
ag30
aI0
aI0
aI0
aI160
aI32
aI240
aI2
aI00
ag66
ag70
aaa(lp2657
g10
a(lp2658
I535
aI230
aI63
aI101
ag73
aI0
aI0
aI0
aI160
aI32
aI240
aI2
aI00
ag66
ag74
aaa(lp2659
g10
a(lp2660
I304
aI225
aI63
aI101
ag77
aI0
aI0
aI0
aI160
aI32
aI240
aI2
aI00
ag66
ag78
aaa(lp2661
g10
a(lp2662
I75
aI576
aI60
aI150
aNaI0
aI0
aI0
aI215
aI253
aI254
aI2
aI00
ag52
ag81
aaa(lp2663
g10
a(lp2664
I74
aI485
aI60
aI150
aNaI0
aI0
aI0
aI215
aI253
aI254
aI2
aI00
ag52
ag84
aaa(lp2665
g10
a(lp2666
I11
aI464
aI140
aI280
aNaI0
aI0
aI0
aI144
aI238
aI144
aI2
aI00
ag87
ag88
aaa(lp2667
g10
a(lp2668
I736
aI207
aI140
aI140
aNaI0
aI0
aI0
aI255
aI165
aI0
aI2
aI00
ag91
ag92
aaa(lp2669
g10
a(lp2670
I382
aI207
aI140
aI140
aNaI0
aI0
aI0
aI255
aI165
aI0
aI2
aI00
ag91
ag95
aaa(lp2671
g10
a(lp2672
I177
aI544
aI48
aI118
aNaI0
aI0
aI0
aI230
aI230
aI250
aI1
aI00
ag52
ag98
aaassI59
(dp2673
g100
(lp2674
I1
asg102
g6
sg103
(lp2675
(lp2676
g10
a(lp2677
I335
aI391
aI40
aI35
aNaI0
aI0
aI0
aI255
aI0
aI0
aI2
aI00
ag26
ag27
aaa(lp2678
g10
a(lp2679
I387
aI375
aI99
aI94
ag1283
aI0
aI0
aI0
aI30
aI144
aI255
aI2
aI00
ag31
ag32
aaa(lp2680
g10
a(lp2681
I393
aI272
aI60
aI60
aNaI0
aI0
aI0
aI230
aI230
aI250
aI2
aI00
ag12
ag35
aaa(lp2682
g10
a(lp2683
I307
aI250
aI60
aI58
ag113
aI0
aI0
aI0
aI165
aI42
aI42
aI2
aI00
ag39
ag40
aaa(lp2684
g10
a(lp2685
I392
aI226
aI60
aI60
aNaI0
aI0
aI0
aI230
aI230
aI250
aI2
aI00
ag12
ag43
aaa(lp2686
g10
a(lp2687
I752
aI219
aI60
aI60
aNaI0
aI0
aI0
aI230
aI230
aI250
aI2
aI00
ag12
ag118
aaa(lp2688
g10
a(lp2689
I798
aI219
aI60
aI60
aNaI0
aI0
aI0
aI230
aI230
aI250
aI2
aI00
ag12
ag121
aaa(lp2690
g10
a(lp2691
I895
aI218
aI48
aI118
aNaI0
aI0
aI0
aI230
aI230
aI250
aI1
aI00
ag52
ag53
aaa(lp2692
g10
a(lp2693
I671
aI214
aI48
aI118
aNaI0
aI0
aI0
aI230
aI230
aI250
aI1
aI00
ag52
ag56
aaa(lp2694
g10
a(lp2695
I392
aI144
aI118
aI48
aNaI0
aI0
aI0
aI230
aI230
aI250
aI1
aI00
ag52
ag59
aaa(lp2696
g10
a(lp2697
I390
aI358
aI118
aI48
aNaI0
aI0
aI0
aI230
aI230
aI250
aI1
aI00
ag52
ag62
aaa(lp2698
g10
a(lp2699
I757
aI358
aI101
aI63
ag65
aI0
aI0
aI0
aI160
aI32
aI240
aI2
aI00
ag66
ag67
aaa(lp2700
g10
a(lp2701
I757
aI130
aI101
aI63
ag30
aI0
aI0
aI0
aI160
aI32
aI240
aI2
aI00
ag66
ag70
aaa(lp2702
g10
a(lp2703
I535
aI230
aI63
aI101
ag73
aI0
aI0
aI0
aI160
aI32
aI240
aI2
aI00
ag66
ag74
aaa(lp2704
g10
a(lp2705
I304
aI225
aI63
aI101
ag77
aI0
aI0
aI0
aI160
aI32
aI240
aI2
aI00
ag66
ag78
aaa(lp2706
g10
a(lp2707
I75
aI576
aI60
aI150
aNaI0
aI0
aI0
aI215
aI253
aI254
aI2
aI00
ag52
ag81
aaa(lp2708
g10
a(lp2709
I74
aI485
aI60
aI150
aNaI0
aI0
aI0
aI215
aI253
aI254
aI2
aI00
ag52
ag84
aaa(lp2710
g10
a(lp2711
I11
aI464
aI140
aI280
aNaI0
aI0
aI0
aI144
aI238
aI144
aI2
aI00
ag87
ag88
aaa(lp2712
g10
a(lp2713
I736
aI207
aI140
aI140
aNaI0
aI0
aI0
aI255
aI165
aI0
aI2
aI00
ag91
ag92
aaa(lp2714
g10
a(lp2715
I382
aI207
aI140
aI140
aNaI0
aI0
aI0
aI255
aI165
aI0
aI2
aI00
ag91
ag95
aaa(lp2716
g10
a(lp2717
I177
aI544
aI48
aI118
aNaI0
aI0
aI0
aI230
aI230
aI250
aI1
aI00
ag52
ag98
aaassI60
(dp2718
g100
(lp2719
I1
asg102
g6
sg103
(lp2720
(lp2721
g10
a(lp2722
I335
aI391
aI40
aI35
aNaI0
aI0
aI0
aI255
aI0
aI0
aI2
aI00
ag26
ag27
aaa(lp2723
g10
a(lp2724
I387
aI375
aI99
aI94
ag1283
aI0
aI0
aI0
aI30
aI144
aI255
aI2
aI00
ag31
ag32
aaa(lp2725
g10
a(lp2726
I393
aI272
aI60
aI60
aNaI0
aI0
aI0
aI230
aI230
aI250
aI2
aI00
ag12
ag35
aaa(lp2727
g10
a(lp2728
I307
aI250
aI60
aI58
ag113
aI0
aI0
aI0
aI165
aI42
aI42
aI2
aI00
ag39
ag40
aaa(lp2729
g10
a(lp2730
I392
aI226
aI60
aI60
aNaI0
aI0
aI0
aI230
aI230
aI250
aI2
aI00
ag12
ag43
aaa(lp2731
g10
a(lp2732
I752
aI219
aI60
aI60
aNaI0
aI0
aI0
aI230
aI230
aI250
aI2
aI00
ag12
ag118
aaa(lp2733
g10
a(lp2734
I798
aI219
aI60
aI60
aNaI0
aI0
aI0
aI230
aI230
aI250
aI2
aI00
ag12
ag121
aaa(lp2735
g10
a(lp2736
I895
aI218
aI48
aI118
aNaI0
aI0
aI0
aI230
aI230
aI250
aI1
aI00
ag52
ag53
aaa(lp2737
g10
a(lp2738
I671
aI214
aI48
aI118
aNaI0
aI0
aI0
aI230
aI230
aI250
aI1
aI00
ag52
ag56
aaa(lp2739
g10
a(lp2740
I392
aI144
aI118
aI48
aNaI0
aI0
aI0
aI230
aI230
aI250
aI1
aI00
ag52
ag59
aaa(lp2741
g10
a(lp2742
I390
aI358
aI118
aI48
aNaI0
aI0
aI0
aI230
aI230
aI250
aI1
aI00
ag52
ag62
aaa(lp2743
g10
a(lp2744
I757
aI358
aI101
aI63
ag65
aI0
aI0
aI0
aI160
aI32
aI240
aI2
aI00
ag66
ag67
aaa(lp2745
g10
a(lp2746
I757
aI130
aI101
aI63
ag30
aI0
aI0
aI0
aI160
aI32
aI240
aI2
aI00
ag66
ag70
aaa(lp2747
g10
a(lp2748
I535
aI230
aI63
aI101
ag73
aI0
aI0
aI0
aI160
aI32
aI240
aI2
aI00
ag66
ag74
aaa(lp2749
g10
a(lp2750
I304
aI225
aI63
aI101
ag77
aI0
aI0
aI0
aI160
aI32
aI240
aI2
aI00
ag66
ag78
aaa(lp2751
g10
a(lp2752
I75
aI576
aI60
aI150
aNaI0
aI0
aI0
aI215
aI253
aI254
aI2
aI00
ag52
ag81
aaa(lp2753
g10
a(lp2754
I74
aI485
aI60
aI150
aNaI0
aI0
aI0
aI215
aI253
aI254
aI2
aI00
ag52
ag84
aaa(lp2755
g10
a(lp2756
I11
aI464
aI140
aI280
aNaI0
aI0
aI0
aI144
aI238
aI144
aI2
aI00
ag87
ag88
aaa(lp2757
g10
a(lp2758
I736
aI207
aI140
aI140
aNaI0
aI0
aI0
aI255
aI165
aI0
aI2
aI00
ag91
ag92
aaa(lp2759
g10
a(lp2760
I382
aI207
aI140
aI140
aNaI0
aI0
aI0
aI255
aI165
aI0
aI2
aI00
ag91
ag95
aaa(lp2761
g10
a(lp2762
I177
aI544
aI48
aI118
aNaI0
aI0
aI0
aI230
aI230
aI250
aI1
aI00
ag52
ag98
aaassI61
(dp2763
g100
(lp2764
I1
asg102
g6
sg103
(lp2765
(lp2766
g10
a(lp2767
I335
aI391
aI40
aI35
aNaI0
aI0
aI0
aI255
aI0
aI0
aI2
aI00
ag26
ag27
aaa(lp2768
g10
a(lp2769
I387
aI375
aI99
aI94
ag1283
aI0
aI0
aI0
aI30
aI144
aI255
aI2
aI00
ag31
ag32
aaa(lp2770
g10
a(lp2771
I393
aI272
aI60
aI60
aNaI0
aI0
aI0
aI230
aI230
aI250
aI2
aI00
ag12
ag35
aaa(lp2772
g10
a(lp2773
I307
aI250
aI60
aI58
ag113
aI0
aI0
aI0
aI165
aI42
aI42
aI2
aI00
ag39
ag40
aaa(lp2774
g10
a(lp2775
I392
aI226
aI60
aI60
aNaI0
aI0
aI0
aI230
aI230
aI250
aI2
aI00
ag12
ag43
aaa(lp2776
g10
a(lp2777
I752
aI219
aI60
aI60
aNaI0
aI0
aI0
aI230
aI230
aI250
aI2
aI00
ag12
ag118
aaa(lp2778
g10
a(lp2779
I798
aI219
aI60
aI60
aNaI0
aI0
aI0
aI230
aI230
aI250
aI2
aI00
ag12
ag121
aaa(lp2780
g10
a(lp2781
I895
aI218
aI48
aI118
aNaI0
aI0
aI0
aI230
aI230
aI250
aI1
aI00
ag52
ag53
aaa(lp2782
g10
a(lp2783
I671
aI214
aI48
aI118
aNaI0
aI0
aI0
aI230
aI230
aI250
aI1
aI00
ag52
ag56
aaa(lp2784
g10
a(lp2785
I392
aI144
aI118
aI48
aNaI0
aI0
aI0
aI230
aI230
aI250
aI1
aI00
ag52
ag59
aaa(lp2786
g10
a(lp2787
I390
aI358
aI118
aI48
aNaI0
aI0
aI0
aI230
aI230
aI250
aI1
aI00
ag52
ag62
aaa(lp2788
g10
a(lp2789
I757
aI358
aI101
aI63
ag65
aI0
aI0
aI0
aI160
aI32
aI240
aI2
aI00
ag66
ag67
aaa(lp2790
g10
a(lp2791
I757
aI130
aI101
aI63
ag30
aI0
aI0
aI0
aI160
aI32
aI240
aI2
aI00
ag66
ag70
aaa(lp2792
g10
a(lp2793
I535
aI230
aI63
aI101
ag73
aI0
aI0
aI0
aI160
aI32
aI240
aI2
aI00
ag66
ag74
aaa(lp2794
g10
a(lp2795
I304
aI225
aI63
aI101
ag77
aI0
aI0
aI0
aI160
aI32
aI240
aI2
aI00
ag66
ag78
aaa(lp2796
g10
a(lp2797
I75
aI576
aI60
aI150
aNaI0
aI0
aI0
aI215
aI253
aI254
aI2
aI00
ag52
ag81
aaa(lp2798
g10
a(lp2799
I74
aI485
aI60
aI150
aNaI0
aI0
aI0
aI215
aI253
aI254
aI2
aI00
ag52
ag84
aaa(lp2800
g10
a(lp2801
I11
aI464
aI140
aI280
aNaI0
aI0
aI0
aI144
aI238
aI144
aI2
aI00
ag87
ag88
aaa(lp2802
g10
a(lp2803
I736
aI207
aI140
aI140
aNaI0
aI0
aI0
aI255
aI165
aI0
aI2
aI00
ag91
ag92
aaa(lp2804
g10
a(lp2805
I382
aI207
aI140
aI140
aNaI0
aI0
aI0
aI255
aI165
aI0
aI2
aI00
ag91
ag95
aaa(lp2806
g10
a(lp2807
I177
aI544
aI48
aI118
aNaI0
aI0
aI0
aI230
aI230
aI250
aI1
aI00
ag52
ag98
aaassI62
(dp2808
g100
(lp2809
I1
asg102
g6
sg103
(lp2810
(lp2811
g10
a(lp2812
I335
aI391
aI40
aI35
aNaI0
aI0
aI0
aI255
aI0
aI0
aI2
aI00
ag26
ag27
aaa(lp2813
g10
a(lp2814
I387
aI375
aI99
aI94
ag1283
aI0
aI0
aI0
aI30
aI144
aI255
aI2
aI00
ag31
ag32
aaa(lp2815
g10
a(lp2816
I393
aI272
aI60
aI60
aNaI0
aI0
aI0
aI230
aI230
aI250
aI2
aI00
ag12
ag35
aaa(lp2817
g10
a(lp2818
I307
aI250
aI60
aI58
ag113
aI0
aI0
aI0
aI165
aI42
aI42
aI2
aI00
ag39
ag40
aaa(lp2819
g10
a(lp2820
I392
aI226
aI60
aI60
aNaI0
aI0
aI0
aI230
aI230
aI250
aI2
aI00
ag12
ag43
aaa(lp2821
g10
a(lp2822
I752
aI219
aI60
aI60
aNaI0
aI0
aI0
aI230
aI230
aI250
aI2
aI00
ag12
ag118
aaa(lp2823
g10
a(lp2824
I798
aI219
aI60
aI60
aNaI0
aI0
aI0
aI230
aI230
aI250
aI2
aI00
ag12
ag121
aaa(lp2825
g10
a(lp2826
I895
aI218
aI48
aI118
aNaI0
aI0
aI0
aI230
aI230
aI250
aI1
aI00
ag52
ag53
aaa(lp2827
g10
a(lp2828
I671
aI214
aI48
aI118
aNaI0
aI0
aI0
aI230
aI230
aI250
aI1
aI00
ag52
ag56
aaa(lp2829
g10
a(lp2830
I392
aI144
aI118
aI48
aNaI0
aI0
aI0
aI230
aI230
aI250
aI1
aI00
ag52
ag59
aaa(lp2831
g10
a(lp2832
I390
aI358
aI118
aI48
aNaI0
aI0
aI0
aI230
aI230
aI250
aI1
aI00
ag52
ag62
aaa(lp2833
g10
a(lp2834
I757
aI358
aI101
aI63
ag65
aI0
aI0
aI0
aI160
aI32
aI240
aI2
aI00
ag66
ag67
aaa(lp2835
g10
a(lp2836
I757
aI130
aI101
aI63
ag30
aI0
aI0
aI0
aI160
aI32
aI240
aI2
aI00
ag66
ag70
aaa(lp2837
g10
a(lp2838
I535
aI230
aI63
aI101
ag73
aI0
aI0
aI0
aI160
aI32
aI240
aI2
aI00
ag66
ag74
aaa(lp2839
g10
a(lp2840
I304
aI225
aI63
aI101
ag77
aI0
aI0
aI0
aI160
aI32
aI240
aI2
aI00
ag66
ag78
aaa(lp2841
g10
a(lp2842
I75
aI576
aI60
aI150
aNaI0
aI0
aI0
aI215
aI253
aI254
aI2
aI00
ag52
ag81
aaa(lp2843
g10
a(lp2844
I74
aI485
aI60
aI150
aNaI0
aI0
aI0
aI215
aI253
aI254
aI2
aI00
ag52
ag84
aaa(lp2845
g10
a(lp2846
I11
aI464
aI140
aI280
aNaI0
aI0
aI0
aI144
aI238
aI144
aI2
aI00
ag87
ag88
aaa(lp2847
g10
a(lp2848
I736
aI207
aI140
aI140
aNaI0
aI0
aI0
aI255
aI165
aI0
aI2
aI00
ag91
ag92
aaa(lp2849
g10
a(lp2850
I382
aI207
aI140
aI140
aNaI0
aI0
aI0
aI255
aI165
aI0
aI2
aI00
ag91
ag95
aaa(lp2851
g10
a(lp2852
I177
aI544
aI48
aI118
aNaI0
aI0
aI0
aI230
aI230
aI250
aI1
aI00
ag52
ag98
aaassI63
(dp2853
g100
(lp2854
I1
asg102
g6
sg103
(lp2855
(lp2856
g10
a(lp2857
I335
aI391
aI40
aI35
aNaI0
aI0
aI0
aI255
aI0
aI0
aI2
aI00
ag26
ag27
aaa(lp2858
g10
a(lp2859
I387
aI375
aI99
aI94
ag1283
aI0
aI0
aI0
aI30
aI144
aI255
aI2
aI00
ag31
ag32
aaa(lp2860
g10
a(lp2861
I393
aI272
aI60
aI60
aNaI0
aI0
aI0
aI230
aI230
aI250
aI2
aI00
ag12
ag35
aaa(lp2862
g10
a(lp2863
I307
aI250
aI60
aI58
ag113
aI0
aI0
aI0
aI165
aI42
aI42
aI2
aI00
ag39
ag40
aaa(lp2864
g10
a(lp2865
I392
aI226
aI60
aI60
aNaI0
aI0
aI0
aI230
aI230
aI250
aI2
aI00
ag12
ag43
aaa(lp2866
g10
a(lp2867
I752
aI219
aI60
aI60
aNaI0
aI0
aI0
aI230
aI230
aI250
aI2
aI00
ag12
ag118
aaa(lp2868
g10
a(lp2869
I798
aI219
aI60
aI60
aNaI0
aI0
aI0
aI230
aI230
aI250
aI2
aI00
ag12
ag121
aaa(lp2870
g10
a(lp2871
I895
aI218
aI48
aI118
aNaI0
aI0
aI0
aI230
aI230
aI250
aI1
aI00
ag52
ag53
aaa(lp2872
g10
a(lp2873
I671
aI214
aI48
aI118
aNaI0
aI0
aI0
aI230
aI230
aI250
aI1
aI00
ag52
ag56
aaa(lp2874
g10
a(lp2875
I392
aI144
aI118
aI48
aNaI0
aI0
aI0
aI230
aI230
aI250
aI1
aI00
ag52
ag59
aaa(lp2876
g10
a(lp2877
I390
aI358
aI118
aI48
aNaI0
aI0
aI0
aI230
aI230
aI250
aI1
aI00
ag52
ag62
aaa(lp2878
g10
a(lp2879
I757
aI358
aI101
aI63
ag65
aI0
aI0
aI0
aI160
aI32
aI240
aI2
aI00
ag66
ag67
aaa(lp2880
g10
a(lp2881
I757
aI130
aI101
aI63
ag30
aI0
aI0
aI0
aI160
aI32
aI240
aI2
aI00
ag66
ag70
aaa(lp2882
g10
a(lp2883
I535
aI230
aI63
aI101
ag73
aI0
aI0
aI0
aI160
aI32
aI240
aI2
aI00
ag66
ag74
aaa(lp2884
g10
a(lp2885
I304
aI225
aI63
aI101
ag77
aI0
aI0
aI0
aI160
aI32
aI240
aI2
aI00
ag66
ag78
aaa(lp2886
g10
a(lp2887
I75
aI576
aI60
aI150
aNaI0
aI0
aI0
aI215
aI253
aI254
aI2
aI00
ag52
ag81
aaa(lp2888
g10
a(lp2889
I74
aI485
aI60
aI150
aNaI0
aI0
aI0
aI215
aI253
aI254
aI2
aI00
ag52
ag84
aaa(lp2890
g10
a(lp2891
I11
aI464
aI140
aI280
aNaI0
aI0
aI0
aI144
aI238
aI144
aI2
aI00
ag87
ag88
aaa(lp2892
g10
a(lp2893
I736
aI207
aI140
aI140
aNaI0
aI0
aI0
aI255
aI165
aI0
aI2
aI00
ag91
ag92
aaa(lp2894
g10
a(lp2895
I382
aI207
aI140
aI140
aNaI0
aI0
aI0
aI255
aI165
aI0
aI2
aI00
ag91
ag95
aaa(lp2896
g10
a(lp2897
I177
aI544
aI48
aI118
aNaI0
aI0
aI0
aI230
aI230
aI250
aI1
aI00
ag52
ag98
aaassI64
(dp2898
g100
(lp2899
I0
aI1
asg102
g6
sg103
(lp2900
(lp2901
g10
a(lp2902
I335
aI391
aI40
aI35
aNaI0
aI0
aI0
aI255
aI0
aI0
aI2
aI00
ag26
ag27
aaa(lp2903
g10
a(lp2904
I387
aI375
aI99
aI94
ag1283
aI0
aI0
aI0
aI30
aI144
aI255
aI2
aI00
ag31
ag32
aaa(lp2905
g10
a(lp2906
I393
aI272
aI60
aI60
aNaI0
aI0
aI0
aI230
aI230
aI250
aI2
aI00
ag12
ag35
aaa(lp2907
g10
a(lp2908
I307
aI250
aI60
aI58
ag113
aI0
aI0
aI0
aI165
aI42
aI42
aI2
aI00
ag39
ag40
aaa(lp2909
g10
a(lp2910
I392
aI226
aI60
aI60
aNaI0
aI0
aI0
aI230
aI230
aI250
aI2
aI00
ag12
ag43
aaa(lp2911
g10
a(lp2912
I752
aI219
aI60
aI60
aNaI0
aI0
aI0
aI230
aI230
aI250
aI2
aI00
ag12
ag118
aaa(lp2913
g10
a(lp2914
I798
aI219
aI60
aI60
aNaI0
aI0
aI0
aI230
aI230
aI250
aI2
aI00
ag12
ag121
aaa(lp2915
g10
a(lp2916
I895
aI218
aI48
aI118
aNaI0
aI0
aI0
aI230
aI230
aI250
aI1
aI00
ag52
ag53
aaa(lp2917
g10
a(lp2918
I671
aI214
aI48
aI118
aNaI0
aI0
aI0
aI230
aI230
aI250
aI1
aI00
ag52
ag56
aaa(lp2919
g10
a(lp2920
I392
aI144
aI118
aI48
aNaI0
aI0
aI0
aI230
aI230
aI250
aI1
aI00
ag52
ag59
aaa(lp2921
g10
a(lp2922
I390
aI358
aI118
aI48
aNaI0
aI0
aI0
aI230
aI230
aI250
aI1
aI00
ag52
ag62
aaa(lp2923
g10
a(lp2924
I757
aI358
aI101
aI63
ag65
aI0
aI0
aI0
aI160
aI32
aI240
aI2
aI00
ag66
ag67
aaa(lp2925
g10
a(lp2926
I757
aI130
aI101
aI63
ag30
aI0
aI0
aI0
aI160
aI32
aI240
aI2
aI00
ag66
ag70
aaa(lp2927
g10
a(lp2928
I535
aI230
aI63
aI101
ag73
aI0
aI0
aI0
aI160
aI32
aI240
aI2
aI00
ag66
ag74
aaa(lp2929
g10
a(lp2930
I304
aI225
aI63
aI101
ag77
aI0
aI0
aI0
aI160
aI32
aI240
aI2
aI00
ag66
ag78
aaa(lp2931
g10
a(lp2932
I75
aI576
aI60
aI150
aNaI0
aI0
aI0
aI215
aI253
aI254
aI2
aI00
ag52
ag81
aaa(lp2933
g10
a(lp2934
I74
aI485
aI60
aI150
aNaI0
aI0
aI0
aI215
aI253
aI254
aI2
aI00
ag52
ag84
aaa(lp2935
g10
a(lp2936
I11
aI464
aI140
aI280
aNaI0
aI0
aI0
aI144
aI238
aI144
aI2
aI00
ag87
ag88
aaa(lp2937
g10
a(lp2938
I736
aI207
aI140
aI140
aNaI0
aI0
aI0
aI255
aI165
aI0
aI2
aI00
ag91
ag92
aaa(lp2939
g10
a(lp2940
I382
aI207
aI140
aI140
aNaI0
aI0
aI0
aI255
aI165
aI0
aI2
aI00
ag91
ag95
aaa(lp2941
g10
a(lp2942
I177
aI544
aI48
aI118
aNaI0
aI0
aI0
aI230
aI230
aI250
aI1
aI00
ag52
ag98
aaassI65
(dp2943
g100
(lp2944
I0
aI1
asg102
g6
sg103
(lp2945
(lp2946
g10
a(lp2947
I335
aI391
aI40
aI35
aNaI0
aI0
aI0
aI255
aI0
aI0
aI2
aI00
ag26
ag27
aaa(lp2948
g10
a(lp2949
I387
aI375
aI99
aI94
ag1283
aI0
aI0
aI0
aI30
aI144
aI255
aI2
aI00
ag31
ag32
aaa(lp2950
g10
a(lp2951
I393
aI272
aI60
aI60
aNaI0
aI0
aI0
aI230
aI230
aI250
aI2
aI00
ag12
ag35
aaa(lp2952
g10
a(lp2953
I307
aI250
aI60
aI58
ag113
aI0
aI0
aI0
aI165
aI42
aI42
aI2
aI00
ag39
ag40
aaa(lp2954
g10
a(lp2955
I392
aI226
aI60
aI60
aNaI0
aI0
aI0
aI230
aI230
aI250
aI2
aI00
ag12
ag43
aaa(lp2956
g10
a(lp2957
I752
aI219
aI60
aI60
aNaI0
aI0
aI0
aI230
aI230
aI250
aI2
aI00
ag12
ag118
aaa(lp2958
g10
a(lp2959
I798
aI219
aI60
aI60
aNaI0
aI0
aI0
aI230
aI230
aI250
aI2
aI00
ag12
ag121
aaa(lp2960
g10
a(lp2961
I895
aI218
aI48
aI118
aNaI0
aI0
aI0
aI230
aI230
aI250
aI1
aI00
ag52
ag53
aaa(lp2962
g10
a(lp2963
I671
aI214
aI48
aI118
aNaI0
aI0
aI0
aI230
aI230
aI250
aI1
aI00
ag52
ag56
aaa(lp2964
g10
a(lp2965
I392
aI144
aI118
aI48
aNaI0
aI0
aI0
aI230
aI230
aI250
aI1
aI00
ag52
ag59
aaa(lp2966
g10
a(lp2967
I390
aI358
aI118
aI48
aNaI0
aI0
aI0
aI230
aI230
aI250
aI1
aI00
ag52
ag62
aaa(lp2968
g10
a(lp2969
I757
aI358
aI101
aI63
ag65
aI0
aI0
aI0
aI160
aI32
aI240
aI2
aI00
ag66
ag67
aaa(lp2970
g10
a(lp2971
I757
aI130
aI101
aI63
ag30
aI0
aI0
aI0
aI160
aI32
aI240
aI2
aI00
ag66
ag70
aaa(lp2972
g10
a(lp2973
I535
aI230
aI63
aI101
ag73
aI0
aI0
aI0
aI160
aI32
aI240
aI2
aI00
ag66
ag74
aaa(lp2974
g10
a(lp2975
I304
aI225
aI63
aI101
ag77
aI0
aI0
aI0
aI160
aI32
aI240
aI2
aI00
ag66
ag78
aaa(lp2976
g10
a(lp2977
I75
aI576
aI60
aI150
aNaI0
aI0
aI0
aI215
aI253
aI254
aI2
aI00
ag52
ag81
aaa(lp2978
g10
a(lp2979
I74
aI485
aI60
aI150
aNaI0
aI0
aI0
aI215
aI253
aI254
aI2
aI00
ag52
ag84
aaa(lp2980
g10
a(lp2981
I11
aI464
aI140
aI280
aNaI0
aI0
aI0
aI144
aI238
aI144
aI2
aI00
ag87
ag88
aaa(lp2982
g10
a(lp2983
I736
aI207
aI140
aI140
aNaI0
aI0
aI0
aI255
aI165
aI0
aI2
aI00
ag91
ag92
aaa(lp2984
g10
a(lp2985
I382
aI207
aI140
aI140
aNaI0
aI0
aI0
aI255
aI165
aI0
aI2
aI00
ag91
ag95
aaa(lp2986
g10
a(lp2987
I177
aI544
aI48
aI118
aNaI0
aI0
aI0
aI230
aI230
aI250
aI1
aI00
ag52
ag98
aaassI66
(dp2988
g100
(lp2989
I0
aI1
asg102
g6
sg103
(lp2990
(lp2991
g10
a(lp2992
I335
aI388
aI40
aI35
aNaI0
aI0
aI0
aI255
aI0
aI0
aI2
aI00
ag26
ag27
aaa(lp2993
g10
a(lp2994
I387
aI372
aI99
aI94
ag1283
aI0
aI0
aI0
aI30
aI144
aI255
aI2
aI00
ag31
ag32
aaa(lp2995
g10
a(lp2996
I393
aI272
aI60
aI60
aNaI0
aI0
aI0
aI230
aI230
aI250
aI2
aI00
ag12
ag35
aaa(lp2997
g10
a(lp2998
I307
aI250
aI60
aI58
ag113
aI0
aI0
aI0
aI165
aI42
aI42
aI2
aI00
ag39
ag40
aaa(lp2999
g10
a(lp3000
I392
aI226
aI60
aI60
aNaI0
aI0
aI0
aI230
aI230
aI250
aI2
aI00
ag12
ag43
aaa(lp3001
g10
a(lp3002
I752
aI219
aI60
aI60
aNaI0
aI0
aI0
aI230
aI230
aI250
aI2
aI00
ag12
ag118
aaa(lp3003
g10
a(lp3004
I798
aI219
aI60
aI60
aNaI0
aI0
aI0
aI230
aI230
aI250
aI2
aI00
ag12
ag121
aaa(lp3005
g10
a(lp3006
I895
aI218
aI48
aI118
aNaI0
aI0
aI0
aI230
aI230
aI250
aI1
aI00
ag52
ag53
aaa(lp3007
g10
a(lp3008
I671
aI214
aI48
aI118
aNaI0
aI0
aI0
aI230
aI230
aI250
aI1
aI00
ag52
ag56
aaa(lp3009
g10
a(lp3010
I392
aI144
aI118
aI48
aNaI0
aI0
aI0
aI230
aI230
aI250
aI1
aI00
ag52
ag59
aaa(lp3011
g10
a(lp3012
I390
aI358
aI118
aI48
aNaI0
aI0
aI0
aI230
aI230
aI250
aI1
aI00
ag52
ag62
aaa(lp3013
g10
a(lp3014
I757
aI358
aI101
aI63
ag65
aI0
aI0
aI0
aI160
aI32
aI240
aI2
aI00
ag66
ag67
aaa(lp3015
g10
a(lp3016
I757
aI130
aI101
aI63
ag30
aI0
aI0
aI0
aI160
aI32
aI240
aI2
aI00
ag66
ag70
aaa(lp3017
g10
a(lp3018
I535
aI230
aI63
aI101
ag73
aI0
aI0
aI0
aI160
aI32
aI240
aI2
aI00
ag66
ag74
aaa(lp3019
g10
a(lp3020
I304
aI225
aI63
aI101
ag77
aI0
aI0
aI0
aI160
aI32
aI240
aI2
aI00
ag66
ag78
aaa(lp3021
g10
a(lp3022
I75
aI576
aI60
aI150
aNaI0
aI0
aI0
aI215
aI253
aI254
aI2
aI00
ag52
ag81
aaa(lp3023
g10
a(lp3024
I74
aI485
aI60
aI150
aNaI0
aI0
aI0
aI215
aI253
aI254
aI2
aI00
ag52
ag84
aaa(lp3025
g10
a(lp3026
I11
aI464
aI140
aI280
aNaI0
aI0
aI0
aI144
aI238
aI144
aI2
aI00
ag87
ag88
aaa(lp3027
g10
a(lp3028
I736
aI207
aI140
aI140
aNaI0
aI0
aI0
aI255
aI165
aI0
aI2
aI00
ag91
ag92
aaa(lp3029
g10
a(lp3030
I382
aI207
aI140
aI140
aNaI0
aI0
aI0
aI255
aI165
aI0
aI2
aI00
ag91
ag95
aaa(lp3031
g10
a(lp3032
I177
aI544
aI48
aI118
aNaI0
aI0
aI0
aI230
aI230
aI250
aI1
aI00
ag52
ag98
aaassI67
(dp3033
g100
(lp3034
I0
aI1
asg102
g6
sg103
(lp3035
(lp3036
g10
a(lp3037
I335
aI381
aI40
aI35
aNaI0
aI0
aI0
aI255
aI0
aI0
aI2
aI00
ag26
ag27
aaa(lp3038
g10
a(lp3039
I387
aI365
aI99
aI94
ag1283
aI0
aI0
aI0
aI30
aI144
aI255
aI2
aI00
ag31
ag32
aaa(lp3040
g10
a(lp3041
I393
aI272
aI60
aI60
aNaI0
aI0
aI0
aI230
aI230
aI250
aI2
aI00
ag12
ag35
aaa(lp3042
g10
a(lp3043
I307
aI250
aI60
aI58
ag113
aI0
aI0
aI0
aI165
aI42
aI42
aI2
aI00
ag39
ag40
aaa(lp3044
g10
a(lp3045
I392
aI226
aI60
aI60
aNaI0
aI0
aI0
aI230
aI230
aI250
aI2
aI00
ag12
ag43
aaa(lp3046
g10
a(lp3047
I752
aI219
aI60
aI60
aNaI0
aI0
aI0
aI230
aI230
aI250
aI2
aI00
ag12
ag118
aaa(lp3048
g10
a(lp3049
I798
aI219
aI60
aI60
aNaI0
aI0
aI0
aI230
aI230
aI250
aI2
aI00
ag12
ag121
aaa(lp3050
g10
a(lp3051
I895
aI218
aI48
aI118
aNaI0
aI0
aI0
aI230
aI230
aI250
aI1
aI00
ag52
ag53
aaa(lp3052
g10
a(lp3053
I671
aI214
aI48
aI118
aNaI0
aI0
aI0
aI230
aI230
aI250
aI1
aI00
ag52
ag56
aaa(lp3054
g10
a(lp3055
I392
aI144
aI118
aI48
aNaI0
aI0
aI0
aI230
aI230
aI250
aI1
aI00
ag52
ag59
aaa(lp3056
g10
a(lp3057
I390
aI358
aI118
aI48
aNaI0
aI0
aI0
aI230
aI230
aI250
aI1
aI00
ag52
ag62
aaa(lp3058
g10
a(lp3059
I757
aI358
aI101
aI63
ag65
aI0
aI0
aI0
aI160
aI32
aI240
aI2
aI00
ag66
ag67
aaa(lp3060
g10
a(lp3061
I757
aI130
aI101
aI63
ag30
aI0
aI0
aI0
aI160
aI32
aI240
aI2
aI00
ag66
ag70
aaa(lp3062
g10
a(lp3063
I535
aI230
aI63
aI101
ag73
aI0
aI0
aI0
aI160
aI32
aI240
aI2
aI00
ag66
ag74
aaa(lp3064
g10
a(lp3065
I304
aI225
aI63
aI101
ag77
aI0
aI0
aI0
aI160
aI32
aI240
aI2
aI00
ag66
ag78
aaa(lp3066
g10
a(lp3067
I75
aI576
aI60
aI150
aNaI0
aI0
aI0
aI215
aI253
aI254
aI2
aI00
ag52
ag81
aaa(lp3068
g10
a(lp3069
I74
aI485
aI60
aI150
aNaI0
aI0
aI0
aI215
aI253
aI254
aI2
aI00
ag52
ag84
aaa(lp3070
g10
a(lp3071
I11
aI464
aI140
aI280
aNaI0
aI0
aI0
aI144
aI238
aI144
aI2
aI00
ag87
ag88
aaa(lp3072
g10
a(lp3073
I736
aI207
aI140
aI140
aNaI0
aI0
aI0
aI255
aI165
aI0
aI2
aI00
ag91
ag92
aaa(lp3074
g10
a(lp3075
I382
aI207
aI140
aI140
aNaI0
aI0
aI0
aI255
aI165
aI0
aI2
aI00
ag91
ag95
aaa(lp3076
g10
a(lp3077
I177
aI544
aI48
aI118
aNaI0
aI0
aI0
aI230
aI230
aI250
aI1
aI00
ag52
ag98
aaassI68
(dp3078
g100
(lp3079
I0
aI1
asg102
g6
sg103
(lp3080
(lp3081
g10
a(lp3082
I335
aI375
aI40
aI35
aNaI0
aI0
aI0
aI255
aI0
aI0
aI2
aI00
ag26
ag27
aaa(lp3083
g10
a(lp3084
I387
aI359
aI99
aI94
ag1283
aI0
aI0
aI0
aI30
aI144
aI255
aI2
aI00
ag31
ag32
aaa(lp3085
g10
a(lp3086
I393
aI272
aI60
aI60
aNaI0
aI0
aI0
aI230
aI230
aI250
aI2
aI00
ag12
ag35
aaa(lp3087
g10
a(lp3088
I307
aI250
aI60
aI58
ag113
aI0
aI0
aI0
aI165
aI42
aI42
aI2
aI00
ag39
ag40
aaa(lp3089
g10
a(lp3090
I392
aI226
aI60
aI60
aNaI0
aI0
aI0
aI230
aI230
aI250
aI2
aI00
ag12
ag43
aaa(lp3091
g10
a(lp3092
I752
aI219
aI60
aI60
aNaI0
aI0
aI0
aI230
aI230
aI250
aI2
aI00
ag12
ag118
aaa(lp3093
g10
a(lp3094
I798
aI219
aI60
aI60
aNaI0
aI0
aI0
aI230
aI230
aI250
aI2
aI00
ag12
ag121
aaa(lp3095
g10
a(lp3096
I895
aI218
aI48
aI118
aNaI0
aI0
aI0
aI230
aI230
aI250
aI1
aI00
ag52
ag53
aaa(lp3097
g10
a(lp3098
I671
aI214
aI48
aI118
aNaI0
aI0
aI0
aI230
aI230
aI250
aI1
aI00
ag52
ag56
aaa(lp3099
g10
a(lp3100
I392
aI144
aI118
aI48
aNaI0
aI0
aI0
aI230
aI230
aI250
aI1
aI00
ag52
ag59
aaa(lp3101
g10
a(lp3102
I390
aI358
aI118
aI48
aNaI0
aI0
aI0
aI230
aI230
aI250
aI1
aI00
ag52
ag62
aaa(lp3103
g10
a(lp3104
I757
aI358
aI101
aI63
ag65
aI0
aI0
aI0
aI160
aI32
aI240
aI2
aI00
ag66
ag67
aaa(lp3105
g10
a(lp3106
I757
aI130
aI101
aI63
ag30
aI0
aI0
aI0
aI160
aI32
aI240
aI2
aI00
ag66
ag70
aaa(lp3107
g10
a(lp3108
I535
aI230
aI63
aI101
ag73
aI0
aI0
aI0
aI160
aI32
aI240
aI2
aI00
ag66
ag74
aaa(lp3109
g10
a(lp3110
I304
aI225
aI63
aI101
ag77
aI0
aI0
aI0
aI160
aI32
aI240
aI2
aI00
ag66
ag78
aaa(lp3111
g10
a(lp3112
I75
aI576
aI60
aI150
aNaI0
aI0
aI0
aI215
aI253
aI254
aI2
aI00
ag52
ag81
aaa(lp3113
g10
a(lp3114
I74
aI485
aI60
aI150
aNaI0
aI0
aI0
aI215
aI253
aI254
aI2
aI00
ag52
ag84
aaa(lp3115
g10
a(lp3116
I11
aI464
aI140
aI280
aNaI0
aI0
aI0
aI144
aI238
aI144
aI2
aI00
ag87
ag88
aaa(lp3117
g10
a(lp3118
I736
aI207
aI140
aI140
aNaI0
aI0
aI0
aI255
aI165
aI0
aI2
aI00
ag91
ag92
aaa(lp3119
g10
a(lp3120
I382
aI207
aI140
aI140
aNaI0
aI0
aI0
aI255
aI165
aI0
aI2
aI00
ag91
ag95
aaa(lp3121
g10
a(lp3122
I177
aI544
aI48
aI118
aNaI0
aI0
aI0
aI230
aI230
aI250
aI1
aI00
ag52
ag98
aaassI69
(dp3123
g100
(lp3124
I0
aI1
asg102
g6
sg103
(lp3125
(lp3126
g10
a(lp3127
I335
aI371
aI40
aI35
aNaI0
aI0
aI0
aI255
aI0
aI0
aI2
aI00
ag26
ag27
aaa(lp3128
g10
a(lp3129
I387
aI355
aI99
aI94
ag1283
aI0
aI0
aI0
aI30
aI144
aI255
aI2
aI00
ag31
ag32
aaa(lp3130
g10
a(lp3131
I393
aI272
aI60
aI60
aNaI0
aI0
aI0
aI230
aI230
aI250
aI2
aI00
ag12
ag35
aaa(lp3132
g10
a(lp3133
I307
aI250
aI60
aI58
ag113
aI0
aI0
aI0
aI165
aI42
aI42
aI2
aI00
ag39
ag40
aaa(lp3134
g10
a(lp3135
I392
aI226
aI60
aI60
aNaI0
aI0
aI0
aI230
aI230
aI250
aI2
aI00
ag12
ag43
aaa(lp3136
g10
a(lp3137
I752
aI219
aI60
aI60
aNaI0
aI0
aI0
aI230
aI230
aI250
aI2
aI00
ag12
ag118
aaa(lp3138
g10
a(lp3139
I798
aI219
aI60
aI60
aNaI0
aI0
aI0
aI230
aI230
aI250
aI2
aI00
ag12
ag121
aaa(lp3140
g10
a(lp3141
I895
aI218
aI48
aI118
aNaI0
aI0
aI0
aI230
aI230
aI250
aI1
aI00
ag52
ag53
aaa(lp3142
g10
a(lp3143
I671
aI214
aI48
aI118
aNaI0
aI0
aI0
aI230
aI230
aI250
aI1
aI00
ag52
ag56
aaa(lp3144
g10
a(lp3145
I392
aI144
aI118
aI48
aNaI0
aI0
aI0
aI230
aI230
aI250
aI1
aI00
ag52
ag59
aaa(lp3146
g10
a(lp3147
I390
aI358
aI118
aI48
aNaI0
aI0
aI0
aI230
aI230
aI250
aI1
aI00
ag52
ag62
aaa(lp3148
g10
a(lp3149
I757
aI358
aI101
aI63
ag65
aI0
aI0
aI0
aI160
aI32
aI240
aI2
aI00
ag66
ag67
aaa(lp3150
g10
a(lp3151
I757
aI130
aI101
aI63
ag30
aI0
aI0
aI0
aI160
aI32
aI240
aI2
aI00
ag66
ag70
aaa(lp3152
g10
a(lp3153
I535
aI230
aI63
aI101
ag73
aI0
aI0
aI0
aI160
aI32
aI240
aI2
aI00
ag66
ag74
aaa(lp3154
g10
a(lp3155
I304
aI225
aI63
aI101
ag77
aI0
aI0
aI0
aI160
aI32
aI240
aI2
aI00
ag66
ag78
aaa(lp3156
g10
a(lp3157
I75
aI576
aI60
aI150
aNaI0
aI0
aI0
aI215
aI253
aI254
aI2
aI00
ag52
ag81
aaa(lp3158
g10
a(lp3159
I74
aI485
aI60
aI150
aNaI0
aI0
aI0
aI215
aI253
aI254
aI2
aI00
ag52
ag84
aaa(lp3160
g10
a(lp3161
I11
aI464
aI140
aI280
aNaI0
aI0
aI0
aI144
aI238
aI144
aI2
aI00
ag87
ag88
aaa(lp3162
g10
a(lp3163
I736
aI207
aI140
aI140
aNaI0
aI0
aI0
aI255
aI165
aI0
aI2
aI00
ag91
ag92
aaa(lp3164
g10
a(lp3165
I382
aI207
aI140
aI140
aNaI0
aI0
aI0
aI255
aI165
aI0
aI2
aI00
ag91
ag95
aaa(lp3166
g10
a(lp3167
I177
aI544
aI48
aI118
aNaI0
aI0
aI0
aI230
aI230
aI250
aI1
aI00
ag52
ag98
aaassI70
(dp3168
g100
(lp3169
I0
aI1
asg102
g6
sg103
(lp3170
(lp3171
g10
a(lp3172
I335
aI367
aI40
aI35
aNaI0
aI0
aI0
aI255
aI0
aI0
aI2
aI00
ag26
ag27
aaa(lp3173
g10
a(lp3174
I387
aI351
aI99
aI94
ag1283
aI0
aI0
aI0
aI30
aI144
aI255
aI2
aI00
ag31
ag32
aaa(lp3175
g10
a(lp3176
I393
aI272
aI60
aI60
aNaI0
aI0
aI0
aI230
aI230
aI250
aI2
aI00
ag12
ag35
aaa(lp3177
g10
a(lp3178
I307
aI250
aI60
aI58
ag113
aI0
aI0
aI0
aI165
aI42
aI42
aI2
aI00
ag39
ag40
aaa(lp3179
g10
a(lp3180
I392
aI226
aI60
aI60
aNaI0
aI0
aI0
aI230
aI230
aI250
aI2
aI00
ag12
ag43
aaa(lp3181
g10
a(lp3182
I752
aI219
aI60
aI60
aNaI0
aI0
aI0
aI230
aI230
aI250
aI2
aI00
ag12
ag118
aaa(lp3183
g10
a(lp3184
I798
aI219
aI60
aI60
aNaI0
aI0
aI0
aI230
aI230
aI250
aI2
aI00
ag12
ag121
aaa(lp3185
g10
a(lp3186
I895
aI218
aI48
aI118
aNaI0
aI0
aI0
aI230
aI230
aI250
aI1
aI00
ag52
ag53
aaa(lp3187
g10
a(lp3188
I671
aI214
aI48
aI118
aNaI0
aI0
aI0
aI230
aI230
aI250
aI1
aI00
ag52
ag56
aaa(lp3189
g10
a(lp3190
I392
aI144
aI118
aI48
aNaI0
aI0
aI0
aI230
aI230
aI250
aI1
aI00
ag52
ag59
aaa(lp3191
g10
a(lp3192
I390
aI358
aI118
aI48
aNaI0
aI0
aI0
aI230
aI230
aI250
aI1
aI00
ag52
ag62
aaa(lp3193
g10
a(lp3194
I757
aI358
aI101
aI63
ag65
aI0
aI0
aI0
aI160
aI32
aI240
aI2
aI00
ag66
ag67
aaa(lp3195
g10
a(lp3196
I757
aI130
aI101
aI63
ag30
aI0
aI0
aI0
aI160
aI32
aI240
aI2
aI00
ag66
ag70
aaa(lp3197
g10
a(lp3198
I535
aI230
aI63
aI101
ag73
aI0
aI0
aI0
aI160
aI32
aI240
aI2
aI00
ag66
ag74
aaa(lp3199
g10
a(lp3200
I304
aI225
aI63
aI101
ag77
aI0
aI0
aI0
aI160
aI32
aI240
aI2
aI00
ag66
ag78
aaa(lp3201
g10
a(lp3202
I75
aI576
aI60
aI150
aNaI0
aI0
aI0
aI215
aI253
aI254
aI2
aI00
ag52
ag81
aaa(lp3203
g10
a(lp3204
I74
aI485
aI60
aI150
aNaI0
aI0
aI0
aI215
aI253
aI254
aI2
aI00
ag52
ag84
aaa(lp3205
g10
a(lp3206
I11
aI464
aI140
aI280
aNaI0
aI0
aI0
aI144
aI238
aI144
aI2
aI00
ag87
ag88
aaa(lp3207
g10
a(lp3208
I736
aI207
aI140
aI140
aNaI0
aI0
aI0
aI255
aI165
aI0
aI2
aI00
ag91
ag92
aaa(lp3209
g10
a(lp3210
I382
aI207
aI140
aI140
aNaI0
aI0
aI0
aI255
aI165
aI0
aI2
aI00
ag91
ag95
aaa(lp3211
g10
a(lp3212
I177
aI544
aI48
aI118
aNaI0
aI0
aI0
aI230
aI230
aI250
aI1
aI00
ag52
ag98
aaassI71
(dp3213
g100
(lp3214
I0
aI1
asg102
g6
sg103
(lp3215
(lp3216
g10
a(lp3217
I335
aI367
aI40
aI35
aNaI0
aI0
aI0
aI255
aI0
aI0
aI2
aI00
ag26
ag27
aaa(lp3218
g10
a(lp3219
I387
aI351
aI99
aI94
ag1283
aI0
aI0
aI0
aI30
aI144
aI255
aI2
aI00
ag31
ag32
aaa(lp3220
g10
a(lp3221
I393
aI272
aI60
aI60
aNaI0
aI0
aI0
aI230
aI230
aI250
aI2
aI00
ag12
ag35
aaa(lp3222
g10
a(lp3223
I307
aI250
aI60
aI58
ag113
aI0
aI0
aI0
aI165
aI42
aI42
aI2
aI00
ag39
ag40
aaa(lp3224
g10
a(lp3225
I392
aI226
aI60
aI60
aNaI0
aI0
aI0
aI230
aI230
aI250
aI2
aI00
ag12
ag43
aaa(lp3226
g10
a(lp3227
I752
aI219
aI60
aI60
aNaI0
aI0
aI0
aI230
aI230
aI250
aI2
aI00
ag12
ag118
aaa(lp3228
g10
a(lp3229
I798
aI219
aI60
aI60
aNaI0
aI0
aI0
aI230
aI230
aI250
aI2
aI00
ag12
ag121
aaa(lp3230
g10
a(lp3231
I895
aI218
aI48
aI118
aNaI0
aI0
aI0
aI230
aI230
aI250
aI1
aI00
ag52
ag53
aaa(lp3232
g10
a(lp3233
I671
aI214
aI48
aI118
aNaI0
aI0
aI0
aI230
aI230
aI250
aI1
aI00
ag52
ag56
aaa(lp3234
g10
a(lp3235
I392
aI144
aI118
aI48
aNaI0
aI0
aI0
aI230
aI230
aI250
aI1
aI00
ag52
ag59
aaa(lp3236
g10
a(lp3237
I390
aI358
aI118
aI48
aNaI0
aI0
aI0
aI230
aI230
aI250
aI1
aI00
ag52
ag62
aaa(lp3238
g10
a(lp3239
I757
aI358
aI101
aI63
ag65
aI0
aI0
aI0
aI160
aI32
aI240
aI2
aI00
ag66
ag67
aaa(lp3240
g10
a(lp3241
I757
aI130
aI101
aI63
ag30
aI0
aI0
aI0
aI160
aI32
aI240
aI2
aI00
ag66
ag70
aaa(lp3242
g10
a(lp3243
I535
aI230
aI63
aI101
ag73
aI0
aI0
aI0
aI160
aI32
aI240
aI2
aI00
ag66
ag74
aaa(lp3244
g10
a(lp3245
I304
aI225
aI63
aI101
ag77
aI0
aI0
aI0
aI160
aI32
aI240
aI2
aI00
ag66
ag78
aaa(lp3246
g10
a(lp3247
I75
aI576
aI60
aI150
aNaI0
aI0
aI0
aI215
aI253
aI254
aI2
aI00
ag52
ag81
aaa(lp3248
g10
a(lp3249
I74
aI485
aI60
aI150
aNaI0
aI0
aI0
aI215
aI253
aI254
aI2
aI00
ag52
ag84
aaa(lp3250
g10
a(lp3251
I11
aI464
aI140
aI280
aNaI0
aI0
aI0
aI144
aI238
aI144
aI2
aI00
ag87
ag88
aaa(lp3252
g10
a(lp3253
I736
aI207
aI140
aI140
aNaI0
aI0
aI0
aI255
aI165
aI0
aI2
aI00
ag91
ag92
aaa(lp3254
g10
a(lp3255
I382
aI207
aI140
aI140
aNaI0
aI0
aI0
aI255
aI165
aI0
aI2
aI00
ag91
ag95
aaa(lp3256
g10
a(lp3257
I177
aI544
aI48
aI118
aNaI0
aI0
aI0
aI230
aI230
aI250
aI1
aI00
ag52
ag98
aaassI72
(dp3258
g100
(lp3259
sg102
g6
sg103
(lp3260
(lp3261
g10
a(lp3262
I335
aI367
aI40
aI35
aNaI0
aI0
aI0
aI255
aI0
aI0
aI2
aI00
ag26
ag27
aaa(lp3263
g10
a(lp3264
I387
aI351
aI99
aI94
ag1283
aI0
aI0
aI0
aI30
aI144
aI255
aI2
aI00
ag31
ag32
aaa(lp3265
g10
a(lp3266
I393
aI272
aI60
aI60
aNaI0
aI0
aI0
aI230
aI230
aI250
aI2
aI00
ag12
ag35
aaa(lp3267
g10
a(lp3268
I307
aI250
aI60
aI58
ag113
aI0
aI0
aI0
aI165
aI42
aI42
aI2
aI00
ag39
ag40
aaa(lp3269
g10
a(lp3270
I392
aI226
aI60
aI60
aNaI0
aI0
aI0
aI230
aI230
aI250
aI2
aI00
ag12
ag43
aaa(lp3271
g10
a(lp3272
I752
aI219
aI60
aI60
aNaI0
aI0
aI0
aI230
aI230
aI250
aI2
aI00
ag12
ag118
aaa(lp3273
g10
a(lp3274
I798
aI219
aI60
aI60
aNaI0
aI0
aI0
aI230
aI230
aI250
aI2
aI00
ag12
ag121
aaa(lp3275
g10
a(lp3276
I895
aI218
aI48
aI118
aNaI0
aI0
aI0
aI230
aI230
aI250
aI1
aI00
ag52
ag53
aaa(lp3277
g10
a(lp3278
I671
aI214
aI48
aI118
aNaI0
aI0
aI0
aI230
aI230
aI250
aI1
aI00
ag52
ag56
aaa(lp3279
g10
a(lp3280
I392
aI144
aI118
aI48
aNaI0
aI0
aI0
aI230
aI230
aI250
aI1
aI00
ag52
ag59
aaa(lp3281
g10
a(lp3282
I390
aI358
aI118
aI48
aNaI0
aI0
aI0
aI230
aI230
aI250
aI1
aI00
ag52
ag62
aaa(lp3283
g10
a(lp3284
I757
aI358
aI101
aI63
ag65
aI0
aI0
aI0
aI160
aI32
aI240
aI2
aI00
ag66
ag67
aaa(lp3285
g10
a(lp3286
I757
aI130
aI101
aI63
ag30
aI0
aI0
aI0
aI160
aI32
aI240
aI2
aI00
ag66
ag70
aaa(lp3287
g10
a(lp3288
I535
aI230
aI63
aI101
ag73
aI0
aI0
aI0
aI160
aI32
aI240
aI2
aI00
ag66
ag74
aaa(lp3289
g10
a(lp3290
I304
aI225
aI63
aI101
ag77
aI0
aI0
aI0
aI160
aI32
aI240
aI2
aI00
ag66
ag78
aaa(lp3291
g10
a(lp3292
I75
aI576
aI60
aI150
aNaI0
aI0
aI0
aI215
aI253
aI254
aI2
aI00
ag52
ag81
aaa(lp3293
g10
a(lp3294
I74
aI485
aI60
aI150
aNaI0
aI0
aI0
aI215
aI253
aI254
aI2
aI00
ag52
ag84
aaa(lp3295
g10
a(lp3296
I11
aI464
aI140
aI280
aNaI0
aI0
aI0
aI144
aI238
aI144
aI2
aI00
ag87
ag88
aaa(lp3297
g10
a(lp3298
I736
aI207
aI140
aI140
aNaI0
aI0
aI0
aI255
aI165
aI0
aI2
aI00
ag91
ag92
aaa(lp3299
g10
a(lp3300
I382
aI207
aI140
aI140
aNaI0
aI0
aI0
aI255
aI165
aI0
aI2
aI00
ag91
ag95
aaa(lp3301
g10
a(lp3302
I177
aI544
aI48
aI118
aNaI0
aI0
aI0
aI230
aI230
aI250
aI1
aI00
ag52
ag98
aaassI73
(dp3303
g100
(lp3304
I0
asg102
g6
sg103
(lp3305
(lp3306
g10
a(lp3307
I335
aI364
aI40
aI35
aNaI0
aI0
aI0
aI255
aI0
aI0
aI2
aI00
ag26
ag27
aaa(lp3308
g10
a(lp3309
I387
aI351
aI99
aI94
ag1283
aI0
aI0
aI0
aI30
aI144
aI255
aI2
aI00
ag31
ag32
aaa(lp3310
g10
a(lp3311
I393
aI272
aI60
aI60
aNaI0
aI0
aI0
aI230
aI230
aI250
aI2
aI00
ag12
ag35
aaa(lp3312
g10
a(lp3313
I307
aI250
aI60
aI58
ag113
aI0
aI0
aI0
aI165
aI42
aI42
aI2
aI00
ag39
ag40
aaa(lp3314
g10
a(lp3315
I392
aI226
aI60
aI60
aNaI0
aI0
aI0
aI230
aI230
aI250
aI2
aI00
ag12
ag43
aaa(lp3316
g10
a(lp3317
I752
aI219
aI60
aI60
aNaI0
aI0
aI0
aI230
aI230
aI250
aI2
aI00
ag12
ag118
aaa(lp3318
g10
a(lp3319
I798
aI219
aI60
aI60
aNaI0
aI0
aI0
aI230
aI230
aI250
aI2
aI00
ag12
ag121
aaa(lp3320
g10
a(lp3321
I895
aI218
aI48
aI118
aNaI0
aI0
aI0
aI230
aI230
aI250
aI1
aI00
ag52
ag53
aaa(lp3322
g10
a(lp3323
I671
aI214
aI48
aI118
aNaI0
aI0
aI0
aI230
aI230
aI250
aI1
aI00
ag52
ag56
aaa(lp3324
g10
a(lp3325
I392
aI144
aI118
aI48
aNaI0
aI0
aI0
aI230
aI230
aI250
aI1
aI00
ag52
ag59
aaa(lp3326
g10
a(lp3327
I390
aI358
aI118
aI48
aNaI0
aI0
aI0
aI230
aI230
aI250
aI1
aI00
ag52
ag62
aaa(lp3328
g10
a(lp3329
I757
aI358
aI101
aI63
ag65
aI0
aI0
aI0
aI160
aI32
aI240
aI2
aI00
ag66
ag67
aaa(lp3330
g10
a(lp3331
I757
aI130
aI101
aI63
ag30
aI0
aI0
aI0
aI160
aI32
aI240
aI2
aI00
ag66
ag70
aaa(lp3332
g10
a(lp3333
I535
aI230
aI63
aI101
ag73
aI0
aI0
aI0
aI160
aI32
aI240
aI2
aI00
ag66
ag74
aaa(lp3334
g10
a(lp3335
I304
aI225
aI63
aI101
ag77
aI0
aI0
aI0
aI160
aI32
aI240
aI2
aI00
ag66
ag78
aaa(lp3336
g10
a(lp3337
I75
aI576
aI60
aI150
aNaI0
aI0
aI0
aI215
aI253
aI254
aI2
aI00
ag52
ag81
aaa(lp3338
g10
a(lp3339
I74
aI485
aI60
aI150
aNaI0
aI0
aI0
aI215
aI253
aI254
aI2
aI00
ag52
ag84
aaa(lp3340
g10
a(lp3341
I11
aI464
aI140
aI280
aNaI0
aI0
aI0
aI144
aI238
aI144
aI2
aI00
ag87
ag88
aaa(lp3342
g10
a(lp3343
I736
aI207
aI140
aI140
aNaI0
aI0
aI0
aI255
aI165
aI0
aI2
aI00
ag91
ag92
aaa(lp3344
g10
a(lp3345
I382
aI207
aI140
aI140
aNaI0
aI0
aI0
aI255
aI165
aI0
aI2
aI00
ag91
ag95
aaa(lp3346
g10
a(lp3347
I177
aI544
aI48
aI118
aNaI0
aI0
aI0
aI230
aI230
aI250
aI1
aI00
ag52
ag98
aaassI74
(dp3348
g100
(lp3349
I0
asg102
g6
sg103
(lp3350
(lp3351
g10
a(lp3352
I336
aI332
aI40
aI35
aNaI0
aI0
aI0
aI255
aI0
aI0
aI2
aI00
ag26
ag27
aaa(lp3353
g10
a(lp3354
I387
aI351
aI99
aI94
ag1283
aI0
aI0
aI0
aI30
aI144
aI255
aI2
aI00
ag31
ag32
aaa(lp3355
g10
a(lp3356
I393
aI272
aI60
aI60
aNaI0
aI0
aI0
aI230
aI230
aI250
aI2
aI00
ag12
ag35
aaa(lp3357
g10
a(lp3358
I307
aI250
aI60
aI58
ag113
aI0
aI0
aI0
aI165
aI42
aI42
aI2
aI00
ag39
ag40
aaa(lp3359
g10
a(lp3360
I392
aI226
aI60
aI60
aNaI0
aI0
aI0
aI230
aI230
aI250
aI2
aI00
ag12
ag43
aaa(lp3361
g10
a(lp3362
I752
aI219
aI60
aI60
aNaI0
aI0
aI0
aI230
aI230
aI250
aI2
aI00
ag12
ag118
aaa(lp3363
g10
a(lp3364
I798
aI219
aI60
aI60
aNaI0
aI0
aI0
aI230
aI230
aI250
aI2
aI00
ag12
ag121
aaa(lp3365
g10
a(lp3366
I895
aI218
aI48
aI118
aNaI0
aI0
aI0
aI230
aI230
aI250
aI1
aI00
ag52
ag53
aaa(lp3367
g10
a(lp3368
I671
aI214
aI48
aI118
aNaI0
aI0
aI0
aI230
aI230
aI250
aI1
aI00
ag52
ag56
aaa(lp3369
g10
a(lp3370
I392
aI144
aI118
aI48
aNaI0
aI0
aI0
aI230
aI230
aI250
aI1
aI00
ag52
ag59
aaa(lp3371
g10
a(lp3372
I390
aI358
aI118
aI48
aNaI0
aI0
aI0
aI230
aI230
aI250
aI1
aI00
ag52
ag62
aaa(lp3373
g10
a(lp3374
I757
aI358
aI101
aI63
ag65
aI0
aI0
aI0
aI160
aI32
aI240
aI2
aI00
ag66
ag67
aaa(lp3375
g10
a(lp3376
I757
aI130
aI101
aI63
ag30
aI0
aI0
aI0
aI160
aI32
aI240
aI2
aI00
ag66
ag70
aaa(lp3377
g10
a(lp3378
I535
aI230
aI63
aI101
ag73
aI0
aI0
aI0
aI160
aI32
aI240
aI2
aI00
ag66
ag74
aaa(lp3379
g10
a(lp3380
I304
aI225
aI63
aI101
ag77
aI0
aI0
aI0
aI160
aI32
aI240
aI2
aI00
ag66
ag78
aaa(lp3381
g10
a(lp3382
I75
aI576
aI60
aI150
aNaI0
aI0
aI0
aI215
aI253
aI254
aI2
aI00
ag52
ag81
aaa(lp3383
g10
a(lp3384
I74
aI485
aI60
aI150
aNaI0
aI0
aI0
aI215
aI253
aI254
aI2
aI00
ag52
ag84
aaa(lp3385
g10
a(lp3386
I11
aI464
aI140
aI280
aNaI0
aI0
aI0
aI144
aI238
aI144
aI2
aI00
ag87
ag88
aaa(lp3387
g10
a(lp3388
I736
aI207
aI140
aI140
aNaI0
aI0
aI0
aI255
aI165
aI0
aI2
aI00
ag91
ag92
aaa(lp3389
g10
a(lp3390
I382
aI207
aI140
aI140
aNaI0
aI0
aI0
aI255
aI165
aI0
aI2
aI00
ag91
ag95
aaa(lp3391
g10
a(lp3392
I177
aI544
aI48
aI118
aNaI0
aI0
aI0
aI230
aI230
aI250
aI1
aI00
ag52
ag98
aaassI75
(dp3393
g100
(lp3394
I0
asg102
g6
sg103
(lp3395
(lp3396
g10
a(lp3397
I352
aI314
aI40
aI35
aNaI0
aI0
aI0
aI255
aI0
aI0
aI2
aI00
ag26
ag27
aaa(lp3398
g10
a(lp3399
I387
aI351
aI99
aI94
ag1283
aI0
aI0
aI0
aI30
aI144
aI255
aI2
aI00
ag31
ag32
aaa(lp3400
g10
a(lp3401
I393
aI272
aI60
aI60
aNaI0
aI0
aI0
aI230
aI230
aI250
aI2
aI00
ag12
ag35
aaa(lp3402
g10
a(lp3403
I307
aI250
aI60
aI58
ag113
aI0
aI0
aI0
aI165
aI42
aI42
aI2
aI00
ag39
ag40
aaa(lp3404
g10
a(lp3405
I392
aI226
aI60
aI60
aNaI0
aI0
aI0
aI230
aI230
aI250
aI2
aI00
ag12
ag43
aaa(lp3406
g10
a(lp3407
I752
aI219
aI60
aI60
aNaI0
aI0
aI0
aI230
aI230
aI250
aI2
aI00
ag12
ag118
aaa(lp3408
g10
a(lp3409
I798
aI219
aI60
aI60
aNaI0
aI0
aI0
aI230
aI230
aI250
aI2
aI00
ag12
ag121
aaa(lp3410
g10
a(lp3411
I895
aI218
aI48
aI118
aNaI0
aI0
aI0
aI230
aI230
aI250
aI1
aI00
ag52
ag53
aaa(lp3412
g10
a(lp3413
I671
aI214
aI48
aI118
aNaI0
aI0
aI0
aI230
aI230
aI250
aI1
aI00
ag52
ag56
aaa(lp3414
g10
a(lp3415
I392
aI144
aI118
aI48
aNaI0
aI0
aI0
aI230
aI230
aI250
aI1
aI00
ag52
ag59
aaa(lp3416
g10
a(lp3417
I390
aI358
aI118
aI48
aNaI0
aI0
aI0
aI230
aI230
aI250
aI1
aI00
ag52
ag62
aaa(lp3418
g10
a(lp3419
I757
aI358
aI101
aI63
ag65
aI0
aI0
aI0
aI160
aI32
aI240
aI2
aI00
ag66
ag67
aaa(lp3420
g10
a(lp3421
I757
aI130
aI101
aI63
ag30
aI0
aI0
aI0
aI160
aI32
aI240
aI2
aI00
ag66
ag70
aaa(lp3422
g10
a(lp3423
I535
aI230
aI63
aI101
ag73
aI0
aI0
aI0
aI160
aI32
aI240
aI2
aI00
ag66
ag74
aaa(lp3424
g10
a(lp3425
I304
aI225
aI63
aI101
ag77
aI0
aI0
aI0
aI160
aI32
aI240
aI2
aI00
ag66
ag78
aaa(lp3426
g10
a(lp3427
I75
aI576
aI60
aI150
aNaI0
aI0
aI0
aI215
aI253
aI254
aI2
aI00
ag52
ag81
aaa(lp3428
g10
a(lp3429
I74
aI485
aI60
aI150
aNaI0
aI0
aI0
aI215
aI253
aI254
aI2
aI00
ag52
ag84
aaa(lp3430
g10
a(lp3431
I11
aI464
aI140
aI280
aNaI0
aI0
aI0
aI144
aI238
aI144
aI2
aI00
ag87
ag88
aaa(lp3432
g10
a(lp3433
I736
aI207
aI140
aI140
aNaI0
aI0
aI0
aI255
aI165
aI0
aI2
aI00
ag91
ag92
aaa(lp3434
g10
a(lp3435
I382
aI207
aI140
aI140
aNaI0
aI0
aI0
aI255
aI165
aI0
aI2
aI00
ag91
ag95
aaa(lp3436
g10
a(lp3437
I177
aI544
aI48
aI118
aNaI0
aI0
aI0
aI230
aI230
aI250
aI1
aI00
ag52
ag98
aaassI76
(dp3438
g100
(lp3439
I0
asg102
g6
sg103
(lp3440
(lp3441
g10
a(lp3442
I382
aI295
aI40
aI35
aNaI0
aI0
aI0
aI255
aI0
aI0
aI2
aI00
ag26
ag27
aaa(lp3443
g10
a(lp3444
I387
aI351
aI99
aI94
ag1283
aI0
aI0
aI0
aI30
aI144
aI255
aI2
aI00
ag31
ag32
aaa(lp3445
g10
a(lp3446
I393
aI272
aI60
aI60
aNaI0
aI0
aI0
aI230
aI230
aI250
aI2
aI00
ag12
ag35
aaa(lp3447
g10
a(lp3448
I307
aI250
aI60
aI58
ag113
aI0
aI0
aI0
aI165
aI42
aI42
aI2
aI00
ag39
ag40
aaa(lp3449
g10
a(lp3450
I392
aI226
aI60
aI60
aNaI0
aI0
aI0
aI230
aI230
aI250
aI2
aI00
ag12
ag43
aaa(lp3451
g10
a(lp3452
I752
aI219
aI60
aI60
aNaI0
aI0
aI0
aI230
aI230
aI250
aI2
aI00
ag12
ag118
aaa(lp3453
g10
a(lp3454
I798
aI219
aI60
aI60
aNaI0
aI0
aI0
aI230
aI230
aI250
aI2
aI00
ag12
ag121
aaa(lp3455
g10
a(lp3456
I895
aI218
aI48
aI118
aNaI0
aI0
aI0
aI230
aI230
aI250
aI1
aI00
ag52
ag53
aaa(lp3457
g10
a(lp3458
I671
aI214
aI48
aI118
aNaI0
aI0
aI0
aI230
aI230
aI250
aI1
aI00
ag52
ag56
aaa(lp3459
g10
a(lp3460
I392
aI144
aI118
aI48
aNaI0
aI0
aI0
aI230
aI230
aI250
aI1
aI00
ag52
ag59
aaa(lp3461
g10
a(lp3462
I390
aI358
aI118
aI48
aNaI0
aI0
aI0
aI230
aI230
aI250
aI1
aI00
ag52
ag62
aaa(lp3463
g10
a(lp3464
I757
aI358
aI101
aI63
ag65
aI0
aI0
aI0
aI160
aI32
aI240
aI2
aI00
ag66
ag67
aaa(lp3465
g10
a(lp3466
I757
aI130
aI101
aI63
ag30
aI0
aI0
aI0
aI160
aI32
aI240
aI2
aI00
ag66
ag70
aaa(lp3467
g10
a(lp3468
I535
aI230
aI63
aI101
ag73
aI0
aI0
aI0
aI160
aI32
aI240
aI2
aI00
ag66
ag74
aaa(lp3469
g10
a(lp3470
I304
aI225
aI63
aI101
ag77
aI0
aI0
aI0
aI160
aI32
aI240
aI2
aI00
ag66
ag78
aaa(lp3471
g10
a(lp3472
I75
aI576
aI60
aI150
aNaI0
aI0
aI0
aI215
aI253
aI254
aI2
aI00
ag52
ag81
aaa(lp3473
g10
a(lp3474
I74
aI485
aI60
aI150
aNaI0
aI0
aI0
aI215
aI253
aI254
aI2
aI00
ag52
ag84
aaa(lp3475
g10
a(lp3476
I11
aI464
aI140
aI280
aNaI0
aI0
aI0
aI144
aI238
aI144
aI2
aI00
ag87
ag88
aaa(lp3477
g10
a(lp3478
I736
aI207
aI140
aI140
aNaI0
aI0
aI0
aI255
aI165
aI0
aI2
aI00
ag91
ag92
aaa(lp3479
g10
a(lp3480
I382
aI207
aI140
aI140
aNaI0
aI0
aI0
aI255
aI165
aI0
aI2
aI00
ag91
ag95
aaa(lp3481
g10
a(lp3482
I177
aI544
aI48
aI118
aNaI0
aI0
aI0
aI230
aI230
aI250
aI1
aI00
ag52
ag98
aaassI77
(dp3483
g100
(lp3484
I0
asg102
g6
sg103
(lp3485
(lp3486
g10
a(lp3487
I397
aI288
aI40
aI35
aNaI0
aI0
aI0
aI255
aI0
aI0
aI2
aI00
ag26
ag27
aaa(lp3488
g10
a(lp3489
I387
aI351
aI99
aI94
ag1283
aI0
aI0
aI0
aI30
aI144
aI255
aI2
aI00
ag31
ag32
aaa(lp3490
g10
a(lp3491
I393
aI272
aI60
aI60
aNaI0
aI0
aI0
aI230
aI230
aI250
aI2
aI00
ag12
ag35
aaa(lp3492
g10
a(lp3493
I307
aI250
aI60
aI58
ag113
aI0
aI0
aI0
aI165
aI42
aI42
aI2
aI00
ag39
ag40
aaa(lp3494
g10
a(lp3495
I392
aI226
aI60
aI60
aNaI0
aI0
aI0
aI230
aI230
aI250
aI2
aI00
ag12
ag43
aaa(lp3496
g10
a(lp3497
I752
aI219
aI60
aI60
aNaI0
aI0
aI0
aI230
aI230
aI250
aI2
aI00
ag12
ag118
aaa(lp3498
g10
a(lp3499
I798
aI219
aI60
aI60
aNaI0
aI0
aI0
aI230
aI230
aI250
aI2
aI00
ag12
ag121
aaa(lp3500
g10
a(lp3501
I895
aI218
aI48
aI118
aNaI0
aI0
aI0
aI230
aI230
aI250
aI1
aI00
ag52
ag53
aaa(lp3502
g10
a(lp3503
I671
aI214
aI48
aI118
aNaI0
aI0
aI0
aI230
aI230
aI250
aI1
aI00
ag52
ag56
aaa(lp3504
g10
a(lp3505
I392
aI144
aI118
aI48
aNaI0
aI0
aI0
aI230
aI230
aI250
aI1
aI00
ag52
ag59
aaa(lp3506
g10
a(lp3507
I390
aI358
aI118
aI48
aNaI0
aI0
aI0
aI230
aI230
aI250
aI1
aI00
ag52
ag62
aaa(lp3508
g10
a(lp3509
I757
aI358
aI101
aI63
ag65
aI0
aI0
aI0
aI160
aI32
aI240
aI2
aI00
ag66
ag67
aaa(lp3510
g10
a(lp3511
I757
aI130
aI101
aI63
ag30
aI0
aI0
aI0
aI160
aI32
aI240
aI2
aI00
ag66
ag70
aaa(lp3512
g10
a(lp3513
I535
aI230
aI63
aI101
ag73
aI0
aI0
aI0
aI160
aI32
aI240
aI2
aI00
ag66
ag74
aaa(lp3514
g10
a(lp3515
I304
aI225
aI63
aI101
ag77
aI0
aI0
aI0
aI160
aI32
aI240
aI2
aI00
ag66
ag78
aaa(lp3516
g10
a(lp3517
I75
aI576
aI60
aI150
aNaI0
aI0
aI0
aI215
aI253
aI254
aI2
aI00
ag52
ag81
aaa(lp3518
g10
a(lp3519
I74
aI485
aI60
aI150
aNaI0
aI0
aI0
aI215
aI253
aI254
aI2
aI00
ag52
ag84
aaa(lp3520
g10
a(lp3521
I11
aI464
aI140
aI280
aNaI0
aI0
aI0
aI144
aI238
aI144
aI2
aI00
ag87
ag88
aaa(lp3522
g10
a(lp3523
I736
aI207
aI140
aI140
aNaI0
aI0
aI0
aI255
aI165
aI0
aI2
aI00
ag91
ag92
aaa(lp3524
g10
a(lp3525
I382
aI207
aI140
aI140
aNaI0
aI0
aI0
aI255
aI165
aI0
aI2
aI00
ag91
ag95
aaa(lp3526
g10
a(lp3527
I177
aI544
aI48
aI118
aNaI0
aI0
aI0
aI230
aI230
aI250
aI1
aI00
ag52
ag98
aaassI78
(dp3528
g100
(lp3529
I0
asg102
g6
sg103
(lp3530
(lp3531
g10
a(lp3532
I401
aI286
aI40
aI35
aNaI0
aI0
aI0
aI255
aI0
aI0
aI2
aI00
ag26
ag27
aaa(lp3533
g10
a(lp3534
I387
aI351
aI99
aI94
ag1283
aI0
aI0
aI0
aI30
aI144
aI255
aI2
aI00
ag31
ag32
aaa(lp3535
g10
a(lp3536
I393
aI272
aI60
aI60
aNaI0
aI0
aI0
aI230
aI230
aI250
aI2
aI00
ag12
ag35
aaa(lp3537
g10
a(lp3538
I307
aI250
aI60
aI58
ag113
aI0
aI0
aI0
aI165
aI42
aI42
aI2
aI00
ag39
ag40
aaa(lp3539
g10
a(lp3540
I392
aI226
aI60
aI60
aNaI0
aI0
aI0
aI230
aI230
aI250
aI2
aI00
ag12
ag43
aaa(lp3541
g10
a(lp3542
I752
aI219
aI60
aI60
aNaI0
aI0
aI0
aI230
aI230
aI250
aI2
aI00
ag12
ag118
aaa(lp3543
g10
a(lp3544
I798
aI219
aI60
aI60
aNaI0
aI0
aI0
aI230
aI230
aI250
aI2
aI00
ag12
ag121
aaa(lp3545
g10
a(lp3546
I895
aI218
aI48
aI118
aNaI0
aI0
aI0
aI230
aI230
aI250
aI1
aI00
ag52
ag53
aaa(lp3547
g10
a(lp3548
I671
aI214
aI48
aI118
aNaI0
aI0
aI0
aI230
aI230
aI250
aI1
aI00
ag52
ag56
aaa(lp3549
g10
a(lp3550
I392
aI144
aI118
aI48
aNaI0
aI0
aI0
aI230
aI230
aI250
aI1
aI00
ag52
ag59
aaa(lp3551
g10
a(lp3552
I390
aI358
aI118
aI48
aNaI0
aI0
aI0
aI230
aI230
aI250
aI1
aI00
ag52
ag62
aaa(lp3553
g10
a(lp3554
I757
aI358
aI101
aI63
ag65
aI0
aI0
aI0
aI160
aI32
aI240
aI2
aI00
ag66
ag67
aaa(lp3555
g10
a(lp3556
I757
aI130
aI101
aI63
ag30
aI0
aI0
aI0
aI160
aI32
aI240
aI2
aI00
ag66
ag70
aaa(lp3557
g10
a(lp3558
I535
aI230
aI63
aI101
ag73
aI0
aI0
aI0
aI160
aI32
aI240
aI2
aI00
ag66
ag74
aaa(lp3559
g10
a(lp3560
I304
aI225
aI63
aI101
ag77
aI0
aI0
aI0
aI160
aI32
aI240
aI2
aI00
ag66
ag78
aaa(lp3561
g10
a(lp3562
I75
aI576
aI60
aI150
aNaI0
aI0
aI0
aI215
aI253
aI254
aI2
aI00
ag52
ag81
aaa(lp3563
g10
a(lp3564
I74
aI485
aI60
aI150
aNaI0
aI0
aI0
aI215
aI253
aI254
aI2
aI00
ag52
ag84
aaa(lp3565
g10
a(lp3566
I11
aI464
aI140
aI280
aNaI0
aI0
aI0
aI144
aI238
aI144
aI2
aI00
ag87
ag88
aaa(lp3567
g10
a(lp3568
I736
aI207
aI140
aI140
aNaI0
aI0
aI0
aI255
aI165
aI0
aI2
aI00
ag91
ag92
aaa(lp3569
g10
a(lp3570
I382
aI207
aI140
aI140
aNaI0
aI0
aI0
aI255
aI165
aI0
aI2
aI00
ag91
ag95
aaa(lp3571
g10
a(lp3572
I177
aI544
aI48
aI118
aNaI0
aI0
aI0
aI230
aI230
aI250
aI1
aI00
ag52
ag98
aaassI79
(dp3573
g100
(lp3574
I0
asg102
g6
sg103
(lp3575
(lp3576
g10
a(lp3577
I401
aI286
aI40
aI35
aNaI0
aI0
aI0
aI255
aI0
aI0
aI2
aI00
ag26
ag27
aaa(lp3578
g10
a(lp3579
I387
aI351
aI99
aI94
ag1283
aI0
aI0
aI0
aI30
aI144
aI255
aI2
aI00
ag31
ag32
aaa(lp3580
g10
a(lp3581
I393
aI272
aI60
aI60
aNaI0
aI0
aI0
aI230
aI230
aI250
aI2
aI00
ag12
ag35
aaa(lp3582
g10
a(lp3583
I307
aI250
aI60
aI58
ag113
aI0
aI0
aI0
aI165
aI42
aI42
aI2
aI00
ag39
ag40
aaa(lp3584
g10
a(lp3585
I392
aI226
aI60
aI60
aNaI0
aI0
aI0
aI230
aI230
aI250
aI2
aI00
ag12
ag43
aaa(lp3586
g10
a(lp3587
I752
aI219
aI60
aI60
aNaI0
aI0
aI0
aI230
aI230
aI250
aI2
aI00
ag12
ag118
aaa(lp3588
g10
a(lp3589
I798
aI219
aI60
aI60
aNaI0
aI0
aI0
aI230
aI230
aI250
aI2
aI00
ag12
ag121
aaa(lp3590
g10
a(lp3591
I895
aI218
aI48
aI118
aNaI0
aI0
aI0
aI230
aI230
aI250
aI1
aI00
ag52
ag53
aaa(lp3592
g10
a(lp3593
I671
aI214
aI48
aI118
aNaI0
aI0
aI0
aI230
aI230
aI250
aI1
aI00
ag52
ag56
aaa(lp3594
g10
a(lp3595
I392
aI144
aI118
aI48
aNaI0
aI0
aI0
aI230
aI230
aI250
aI1
aI00
ag52
ag59
aaa(lp3596
g10
a(lp3597
I390
aI358
aI118
aI48
aNaI0
aI0
aI0
aI230
aI230
aI250
aI1
aI00
ag52
ag62
aaa(lp3598
g10
a(lp3599
I757
aI358
aI101
aI63
ag65
aI0
aI0
aI0
aI160
aI32
aI240
aI2
aI00
ag66
ag67
aaa(lp3600
g10
a(lp3601
I757
aI130
aI101
aI63
ag30
aI0
aI0
aI0
aI160
aI32
aI240
aI2
aI00
ag66
ag70
aaa(lp3602
g10
a(lp3603
I535
aI230
aI63
aI101
ag73
aI0
aI0
aI0
aI160
aI32
aI240
aI2
aI00
ag66
ag74
aaa(lp3604
g10
a(lp3605
I304
aI225
aI63
aI101
ag77
aI0
aI0
aI0
aI160
aI32
aI240
aI2
aI00
ag66
ag78
aaa(lp3606
g10
a(lp3607
I75
aI576
aI60
aI150
aNaI0
aI0
aI0
aI215
aI253
aI254
aI2
aI00
ag52
ag81
aaa(lp3608
g10
a(lp3609
I74
aI485
aI60
aI150
aNaI0
aI0
aI0
aI215
aI253
aI254
aI2
aI00
ag52
ag84
aaa(lp3610
g10
a(lp3611
I11
aI464
aI140
aI280
aNaI0
aI0
aI0
aI144
aI238
aI144
aI2
aI00
ag87
ag88
aaa(lp3612
g10
a(lp3613
I736
aI207
aI140
aI140
aNaI0
aI0
aI0
aI255
aI165
aI0
aI2
aI00
ag91
ag92
aaa(lp3614
g10
a(lp3615
I382
aI207
aI140
aI140
aNaI0
aI0
aI0
aI255
aI165
aI0
aI2
aI00
ag91
ag95
aaa(lp3616
g10
a(lp3617
I177
aI544
aI48
aI118
aNaI0
aI0
aI0
aI230
aI230
aI250
aI1
aI00
ag52
ag98
aaassI80
(dp3618
g100
(lp3619
I0
asg102
g6
sg103
(lp3620
(lp3621
g10
a(lp3622
I401
aI286
aI40
aI35
aNaI0
aI0
aI0
aI255
aI0
aI0
aI2
aI00
ag26
ag27
aaa(lp3623
g10
a(lp3624
I387
aI351
aI99
aI94
ag1283
aI0
aI0
aI0
aI30
aI144
aI255
aI2
aI00
ag31
ag32
aaa(lp3625
g10
a(lp3626
I393
aI272
aI60
aI60
aNaI0
aI0
aI0
aI230
aI230
aI250
aI2
aI00
ag12
ag35
aaa(lp3627
g10
a(lp3628
I307
aI250
aI60
aI58
ag113
aI0
aI0
aI0
aI165
aI42
aI42
aI2
aI00
ag39
ag40
aaa(lp3629
g10
a(lp3630
I392
aI226
aI60
aI60
aNaI0
aI0
aI0
aI230
aI230
aI250
aI2
aI00
ag12
ag43
aaa(lp3631
g10
a(lp3632
I752
aI219
aI60
aI60
aNaI0
aI0
aI0
aI230
aI230
aI250
aI2
aI00
ag12
ag118
aaa(lp3633
g10
a(lp3634
I798
aI219
aI60
aI60
aNaI0
aI0
aI0
aI230
aI230
aI250
aI2
aI00
ag12
ag121
aaa(lp3635
g10
a(lp3636
I895
aI218
aI48
aI118
aNaI0
aI0
aI0
aI230
aI230
aI250
aI1
aI00
ag52
ag53
aaa(lp3637
g10
a(lp3638
I671
aI214
aI48
aI118
aNaI0
aI0
aI0
aI230
aI230
aI250
aI1
aI00
ag52
ag56
aaa(lp3639
g10
a(lp3640
I392
aI144
aI118
aI48
aNaI0
aI0
aI0
aI230
aI230
aI250
aI1
aI00
ag52
ag59
aaa(lp3641
g10
a(lp3642
I390
aI358
aI118
aI48
aNaI0
aI0
aI0
aI230
aI230
aI250
aI1
aI00
ag52
ag62
aaa(lp3643
g10
a(lp3644
I757
aI358
aI101
aI63
ag65
aI0
aI0
aI0
aI160
aI32
aI240
aI2
aI00
ag66
ag67
aaa(lp3645
g10
a(lp3646
I757
aI130
aI101
aI63
ag30
aI0
aI0
aI0
aI160
aI32
aI240
aI2
aI00
ag66
ag70
aaa(lp3647
g10
a(lp3648
I535
aI230
aI63
aI101
ag73
aI0
aI0
aI0
aI160
aI32
aI240
aI2
aI00
ag66
ag74
aaa(lp3649
g10
a(lp3650
I304
aI225
aI63
aI101
ag77
aI0
aI0
aI0
aI160
aI32
aI240
aI2
aI00
ag66
ag78
aaa(lp3651
g10
a(lp3652
I75
aI576
aI60
aI150
aNaI0
aI0
aI0
aI215
aI253
aI254
aI2
aI00
ag52
ag81
aaa(lp3653
g10
a(lp3654
I74
aI485
aI60
aI150
aNaI0
aI0
aI0
aI215
aI253
aI254
aI2
aI00
ag52
ag84
aaa(lp3655
g10
a(lp3656
I11
aI464
aI140
aI280
aNaI0
aI0
aI0
aI144
aI238
aI144
aI2
aI00
ag87
ag88
aaa(lp3657
g10
a(lp3658
I736
aI207
aI140
aI140
aNaI0
aI0
aI0
aI255
aI165
aI0
aI2
aI00
ag91
ag92
aaa(lp3659
g10
a(lp3660
I382
aI207
aI140
aI140
aNaI0
aI0
aI0
aI255
aI165
aI0
aI2
aI00
ag91
ag95
aaa(lp3661
g10
a(lp3662
I177
aI544
aI48
aI118
aNaI0
aI0
aI0
aI230
aI230
aI250
aI1
aI00
ag52
ag98
aaassI81
(dp3663
g100
(lp3664
I0
asg102
g6
sg103
(lp3665
(lp3666
g10
a(lp3667
I401
aI286
aI40
aI35
aNaI0
aI0
aI0
aI255
aI0
aI0
aI2
aI00
ag26
ag27
aaa(lp3668
g10
a(lp3669
I387
aI351
aI99
aI94
ag1283
aI0
aI0
aI0
aI30
aI144
aI255
aI2
aI00
ag31
ag32
aaa(lp3670
g10
a(lp3671
I393
aI272
aI60
aI60
aNaI0
aI0
aI0
aI230
aI230
aI250
aI2
aI00
ag12
ag35
aaa(lp3672
g10
a(lp3673
I307
aI250
aI60
aI58
ag113
aI0
aI0
aI0
aI165
aI42
aI42
aI2
aI00
ag39
ag40
aaa(lp3674
g10
a(lp3675
I392
aI226
aI60
aI60
aNaI0
aI0
aI0
aI230
aI230
aI250
aI2
aI00
ag12
ag43
aaa(lp3676
g10
a(lp3677
I752
aI219
aI60
aI60
aNaI0
aI0
aI0
aI230
aI230
aI250
aI2
aI00
ag12
ag118
aaa(lp3678
g10
a(lp3679
I798
aI219
aI60
aI60
aNaI0
aI0
aI0
aI230
aI230
aI250
aI2
aI00
ag12
ag121
aaa(lp3680
g10
a(lp3681
I895
aI218
aI48
aI118
aNaI0
aI0
aI0
aI230
aI230
aI250
aI1
aI00
ag52
ag53
aaa(lp3682
g10
a(lp3683
I671
aI214
aI48
aI118
aNaI0
aI0
aI0
aI230
aI230
aI250
aI1
aI00
ag52
ag56
aaa(lp3684
g10
a(lp3685
I392
aI144
aI118
aI48
aNaI0
aI0
aI0
aI230
aI230
aI250
aI1
aI00
ag52
ag59
aaa(lp3686
g10
a(lp3687
I390
aI358
aI118
aI48
aNaI0
aI0
aI0
aI230
aI230
aI250
aI1
aI00
ag52
ag62
aaa(lp3688
g10
a(lp3689
I757
aI358
aI101
aI63
ag65
aI0
aI0
aI0
aI160
aI32
aI240
aI2
aI00
ag66
ag67
aaa(lp3690
g10
a(lp3691
I757
aI130
aI101
aI63
ag30
aI0
aI0
aI0
aI160
aI32
aI240
aI2
aI00
ag66
ag70
aaa(lp3692
g10
a(lp3693
I535
aI230
aI63
aI101
ag73
aI0
aI0
aI0
aI160
aI32
aI240
aI2
aI00
ag66
ag74
aaa(lp3694
g10
a(lp3695
I304
aI225
aI63
aI101
ag77
aI0
aI0
aI0
aI160
aI32
aI240
aI2
aI00
ag66
ag78
aaa(lp3696
g10
a(lp3697
I75
aI576
aI60
aI150
aNaI0
aI0
aI0
aI215
aI253
aI254
aI2
aI00
ag52
ag81
aaa(lp3698
g10
a(lp3699
I74
aI485
aI60
aI150
aNaI0
aI0
aI0
aI215
aI253
aI254
aI2
aI00
ag52
ag84
aaa(lp3700
g10
a(lp3701
I11
aI464
aI140
aI280
aNaI0
aI0
aI0
aI144
aI238
aI144
aI2
aI00
ag87
ag88
aaa(lp3702
g10
a(lp3703
I736
aI207
aI140
aI140
aNaI0
aI0
aI0
aI255
aI165
aI0
aI2
aI00
ag91
ag92
aaa(lp3704
g10
a(lp3705
I382
aI207
aI140
aI140
aNaI0
aI0
aI0
aI255
aI165
aI0
aI2
aI00
ag91
ag95
aaa(lp3706
g10
a(lp3707
I177
aI544
aI48
aI118
aNaI0
aI0
aI0
aI230
aI230
aI250
aI1
aI00
ag52
ag98
aaassI82
(dp3708
g100
(lp3709
I0
asg102
g6
sg103
(lp3710
(lp3711
g10
a(lp3712
I401
aI286
aI40
aI35
aNaI0
aI0
aI0
aI255
aI0
aI0
aI2
aI00
ag26
ag27
aaa(lp3713
g10
a(lp3714
I387
aI351
aI99
aI94
ag1283
aI0
aI0
aI0
aI30
aI144
aI255
aI2
aI00
ag31
ag32
aaa(lp3715
g10
a(lp3716
I393
aI272
aI60
aI60
aNaI0
aI0
aI0
aI230
aI230
aI250
aI2
aI00
ag12
ag35
aaa(lp3717
g10
a(lp3718
I307
aI250
aI60
aI58
ag113
aI0
aI0
aI0
aI165
aI42
aI42
aI2
aI00
ag39
ag40
aaa(lp3719
g10
a(lp3720
I392
aI226
aI60
aI60
aNaI0
aI0
aI0
aI230
aI230
aI250
aI2
aI00
ag12
ag43
aaa(lp3721
g10
a(lp3722
I752
aI219
aI60
aI60
aNaI0
aI0
aI0
aI230
aI230
aI250
aI2
aI00
ag12
ag118
aaa(lp3723
g10
a(lp3724
I798
aI219
aI60
aI60
aNaI0
aI0
aI0
aI230
aI230
aI250
aI2
aI00
ag12
ag121
aaa(lp3725
g10
a(lp3726
I895
aI218
aI48
aI118
aNaI0
aI0
aI0
aI230
aI230
aI250
aI1
aI00
ag52
ag53
aaa(lp3727
g10
a(lp3728
I671
aI214
aI48
aI118
aNaI0
aI0
aI0
aI230
aI230
aI250
aI1
aI00
ag52
ag56
aaa(lp3729
g10
a(lp3730
I392
aI144
aI118
aI48
aNaI0
aI0
aI0
aI230
aI230
aI250
aI1
aI00
ag52
ag59
aaa(lp3731
g10
a(lp3732
I390
aI358
aI118
aI48
aNaI0
aI0
aI0
aI230
aI230
aI250
aI1
aI00
ag52
ag62
aaa(lp3733
g10
a(lp3734
I757
aI358
aI101
aI63
ag65
aI0
aI0
aI0
aI160
aI32
aI240
aI2
aI00
ag66
ag67
aaa(lp3735
g10
a(lp3736
I757
aI130
aI101
aI63
ag30
aI0
aI0
aI0
aI160
aI32
aI240
aI2
aI00
ag66
ag70
aaa(lp3737
g10
a(lp3738
I535
aI230
aI63
aI101
ag73
aI0
aI0
aI0
aI160
aI32
aI240
aI2
aI00
ag66
ag74
aaa(lp3739
g10
a(lp3740
I304
aI225
aI63
aI101
ag77
aI0
aI0
aI0
aI160
aI32
aI240
aI2
aI00
ag66
ag78
aaa(lp3741
g10
a(lp3742
I75
aI576
aI60
aI150
aNaI0
aI0
aI0
aI215
aI253
aI254
aI2
aI00
ag52
ag81
aaa(lp3743
g10
a(lp3744
I74
aI485
aI60
aI150
aNaI0
aI0
aI0
aI215
aI253
aI254
aI2
aI00
ag52
ag84
aaa(lp3745
g10
a(lp3746
I11
aI464
aI140
aI280
aNaI0
aI0
aI0
aI144
aI238
aI144
aI2
aI00
ag87
ag88
aaa(lp3747
g10
a(lp3748
I736
aI207
aI140
aI140
aNaI0
aI0
aI0
aI255
aI165
aI0
aI2
aI00
ag91
ag92
aaa(lp3749
g10
a(lp3750
I382
aI207
aI140
aI140
aNaI0
aI0
aI0
aI255
aI165
aI0
aI2
aI00
ag91
ag95
aaa(lp3751
g10
a(lp3752
I177
aI544
aI48
aI118
aNaI0
aI0
aI0
aI230
aI230
aI250
aI1
aI00
ag52
ag98
aaassI83
(dp3753
g100
(lp3754
I0
asg102
g6
sg103
(lp3755
(lp3756
g10
a(lp3757
I401
aI286
aI40
aI35
aNaI0
aI0
aI0
aI255
aI0
aI0
aI2
aI00
ag26
ag27
aaa(lp3758
g10
a(lp3759
I387
aI351
aI99
aI94
ag1283
aI0
aI0
aI0
aI30
aI144
aI255
aI2
aI00
ag31
ag32
aaa(lp3760
g10
a(lp3761
I393
aI272
aI60
aI60
aNaI0
aI0
aI0
aI230
aI230
aI250
aI2
aI00
ag12
ag35
aaa(lp3762
g10
a(lp3763
I307
aI250
aI60
aI58
ag113
aI0
aI0
aI0
aI165
aI42
aI42
aI2
aI00
ag39
ag40
aaa(lp3764
g10
a(lp3765
I392
aI226
aI60
aI60
aNaI0
aI0
aI0
aI230
aI230
aI250
aI2
aI00
ag12
ag43
aaa(lp3766
g10
a(lp3767
I752
aI219
aI60
aI60
aNaI0
aI0
aI0
aI230
aI230
aI250
aI2
aI00
ag12
ag118
aaa(lp3768
g10
a(lp3769
I798
aI219
aI60
aI60
aNaI0
aI0
aI0
aI230
aI230
aI250
aI2
aI00
ag12
ag121
aaa(lp3770
g10
a(lp3771
I895
aI218
aI48
aI118
aNaI0
aI0
aI0
aI230
aI230
aI250
aI1
aI00
ag52
ag53
aaa(lp3772
g10
a(lp3773
I671
aI214
aI48
aI118
aNaI0
aI0
aI0
aI230
aI230
aI250
aI1
aI00
ag52
ag56
aaa(lp3774
g10
a(lp3775
I392
aI144
aI118
aI48
aNaI0
aI0
aI0
aI230
aI230
aI250
aI1
aI00
ag52
ag59
aaa(lp3776
g10
a(lp3777
I390
aI358
aI118
aI48
aNaI0
aI0
aI0
aI230
aI230
aI250
aI1
aI00
ag52
ag62
aaa(lp3778
g10
a(lp3779
I757
aI358
aI101
aI63
ag65
aI0
aI0
aI0
aI160
aI32
aI240
aI2
aI00
ag66
ag67
aaa(lp3780
g10
a(lp3781
I757
aI130
aI101
aI63
ag30
aI0
aI0
aI0
aI160
aI32
aI240
aI2
aI00
ag66
ag70
aaa(lp3782
g10
a(lp3783
I535
aI230
aI63
aI101
ag73
aI0
aI0
aI0
aI160
aI32
aI240
aI2
aI00
ag66
ag74
aaa(lp3784
g10
a(lp3785
I304
aI225
aI63
aI101
ag77
aI0
aI0
aI0
aI160
aI32
aI240
aI2
aI00
ag66
ag78
aaa(lp3786
g10
a(lp3787
I75
aI576
aI60
aI150
aNaI0
aI0
aI0
aI215
aI253
aI254
aI2
aI00
ag52
ag81
aaa(lp3788
g10
a(lp3789
I74
aI485
aI60
aI150
aNaI0
aI0
aI0
aI215
aI253
aI254
aI2
aI00
ag52
ag84
aaa(lp3790
g10
a(lp3791
I11
aI464
aI140
aI280
aNaI0
aI0
aI0
aI144
aI238
aI144
aI2
aI00
ag87
ag88
aaa(lp3792
g10
a(lp3793
I736
aI207
aI140
aI140
aNaI0
aI0
aI0
aI255
aI165
aI0
aI2
aI00
ag91
ag92
aaa(lp3794
g10
a(lp3795
I382
aI207
aI140
aI140
aNaI0
aI0
aI0
aI255
aI165
aI0
aI2
aI00
ag91
ag95
aaa(lp3796
g10
a(lp3797
I177
aI544
aI48
aI118
aNaI0
aI0
aI0
aI230
aI230
aI250
aI1
aI00
ag52
ag98
aaassI84
(dp3798
g100
(lp3799
I0
asg102
g6
sg103
(lp3800
(lp3801
g10
a(lp3802
I401
aI286
aI40
aI35
aNaI0
aI0
aI0
aI255
aI0
aI0
aI2
aI00
ag26
ag27
aaa(lp3803
g10
a(lp3804
I387
aI351
aI99
aI94
ag1283
aI0
aI0
aI0
aI30
aI144
aI255
aI2
aI00
ag31
ag32
aaa(lp3805
g10
a(lp3806
I393
aI272
aI60
aI60
aNaI0
aI0
aI0
aI230
aI230
aI250
aI2
aI00
ag12
ag35
aaa(lp3807
g10
a(lp3808
I307
aI250
aI60
aI58
ag113
aI0
aI0
aI0
aI165
aI42
aI42
aI2
aI00
ag39
ag40
aaa(lp3809
g10
a(lp3810
I392
aI226
aI60
aI60
aNaI0
aI0
aI0
aI230
aI230
aI250
aI2
aI00
ag12
ag43
aaa(lp3811
g10
a(lp3812
I752
aI219
aI60
aI60
aNaI0
aI0
aI0
aI230
aI230
aI250
aI2
aI00
ag12
ag118
aaa(lp3813
g10
a(lp3814
I798
aI219
aI60
aI60
aNaI0
aI0
aI0
aI230
aI230
aI250
aI2
aI00
ag12
ag121
aaa(lp3815
g10
a(lp3816
I895
aI218
aI48
aI118
aNaI0
aI0
aI0
aI230
aI230
aI250
aI1
aI00
ag52
ag53
aaa(lp3817
g10
a(lp3818
I671
aI214
aI48
aI118
aNaI0
aI0
aI0
aI230
aI230
aI250
aI1
aI00
ag52
ag56
aaa(lp3819
g10
a(lp3820
I392
aI144
aI118
aI48
aNaI0
aI0
aI0
aI230
aI230
aI250
aI1
aI00
ag52
ag59
aaa(lp3821
g10
a(lp3822
I390
aI358
aI118
aI48
aNaI0
aI0
aI0
aI230
aI230
aI250
aI1
aI00
ag52
ag62
aaa(lp3823
g10
a(lp3824
I757
aI358
aI101
aI63
ag65
aI0
aI0
aI0
aI160
aI32
aI240
aI2
aI00
ag66
ag67
aaa(lp3825
g10
a(lp3826
I757
aI130
aI101
aI63
ag30
aI0
aI0
aI0
aI160
aI32
aI240
aI2
aI00
ag66
ag70
aaa(lp3827
g10
a(lp3828
I535
aI230
aI63
aI101
ag73
aI0
aI0
aI0
aI160
aI32
aI240
aI2
aI00
ag66
ag74
aaa(lp3829
g10
a(lp3830
I304
aI225
aI63
aI101
ag77
aI0
aI0
aI0
aI160
aI32
aI240
aI2
aI00
ag66
ag78
aaa(lp3831
g10
a(lp3832
I75
aI576
aI60
aI150
aNaI0
aI0
aI0
aI215
aI253
aI254
aI2
aI00
ag52
ag81
aaa(lp3833
g10
a(lp3834
I74
aI485
aI60
aI150
aNaI0
aI0
aI0
aI215
aI253
aI254
aI2
aI00
ag52
ag84
aaa(lp3835
g10
a(lp3836
I11
aI464
aI140
aI280
aNaI0
aI0
aI0
aI144
aI238
aI144
aI2
aI00
ag87
ag88
aaa(lp3837
g10
a(lp3838
I736
aI207
aI140
aI140
aNaI0
aI0
aI0
aI255
aI165
aI0
aI2
aI00
ag91
ag92
aaa(lp3839
g10
a(lp3840
I382
aI207
aI140
aI140
aNaI0
aI0
aI0
aI255
aI165
aI0
aI2
aI00
ag91
ag95
aaa(lp3841
g10
a(lp3842
I177
aI544
aI48
aI118
aNaI0
aI0
aI0
aI230
aI230
aI250
aI1
aI00
ag52
ag98
aaassI85
(dp3843
g100
(lp3844
I0
asg102
g6
sg103
(lp3845
(lp3846
g10
a(lp3847
I401
aI286
aI40
aI35
aNaI0
aI0
aI0
aI255
aI0
aI0
aI2
aI00
ag26
ag27
aaa(lp3848
g10
a(lp3849
I387
aI351
aI99
aI94
ag1283
aI0
aI0
aI0
aI30
aI144
aI255
aI2
aI00
ag31
ag32
aaa(lp3850
g10
a(lp3851
I393
aI272
aI60
aI60
aNaI0
aI0
aI0
aI230
aI230
aI250
aI2
aI00
ag12
ag35
aaa(lp3852
g10
a(lp3853
I307
aI250
aI60
aI58
ag113
aI0
aI0
aI0
aI165
aI42
aI42
aI2
aI00
ag39
ag40
aaa(lp3854
g10
a(lp3855
I392
aI226
aI60
aI60
aNaI0
aI0
aI0
aI230
aI230
aI250
aI2
aI00
ag12
ag43
aaa(lp3856
g10
a(lp3857
I752
aI219
aI60
aI60
aNaI0
aI0
aI0
aI230
aI230
aI250
aI2
aI00
ag12
ag118
aaa(lp3858
g10
a(lp3859
I798
aI219
aI60
aI60
aNaI0
aI0
aI0
aI230
aI230
aI250
aI2
aI00
ag12
ag121
aaa(lp3860
g10
a(lp3861
I895
aI218
aI48
aI118
aNaI0
aI0
aI0
aI230
aI230
aI250
aI1
aI00
ag52
ag53
aaa(lp3862
g10
a(lp3863
I671
aI214
aI48
aI118
aNaI0
aI0
aI0
aI230
aI230
aI250
aI1
aI00
ag52
ag56
aaa(lp3864
g10
a(lp3865
I392
aI144
aI118
aI48
aNaI0
aI0
aI0
aI230
aI230
aI250
aI1
aI00
ag52
ag59
aaa(lp3866
g10
a(lp3867
I390
aI358
aI118
aI48
aNaI0
aI0
aI0
aI230
aI230
aI250
aI1
aI00
ag52
ag62
aaa(lp3868
g10
a(lp3869
I757
aI358
aI101
aI63
ag65
aI0
aI0
aI0
aI160
aI32
aI240
aI2
aI00
ag66
ag67
aaa(lp3870
g10
a(lp3871
I757
aI130
aI101
aI63
ag30
aI0
aI0
aI0
aI160
aI32
aI240
aI2
aI00
ag66
ag70
aaa(lp3872
g10
a(lp3873
I535
aI230
aI63
aI101
ag73
aI0
aI0
aI0
aI160
aI32
aI240
aI2
aI00
ag66
ag74
aaa(lp3874
g10
a(lp3875
I304
aI225
aI63
aI101
ag77
aI0
aI0
aI0
aI160
aI32
aI240
aI2
aI00
ag66
ag78
aaa(lp3876
g10
a(lp3877
I75
aI576
aI60
aI150
aNaI0
aI0
aI0
aI215
aI253
aI254
aI2
aI00
ag52
ag81
aaa(lp3878
g10
a(lp3879
I74
aI485
aI60
aI150
aNaI0
aI0
aI0
aI215
aI253
aI254
aI2
aI00
ag52
ag84
aaa(lp3880
g10
a(lp3881
I11
aI464
aI140
aI280
aNaI0
aI0
aI0
aI144
aI238
aI144
aI2
aI00
ag87
ag88
aaa(lp3882
g10
a(lp3883
I736
aI207
aI140
aI140
aNaI0
aI0
aI0
aI255
aI165
aI0
aI2
aI00
ag91
ag92
aaa(lp3884
g10
a(lp3885
I382
aI207
aI140
aI140
aNaI0
aI0
aI0
aI255
aI165
aI0
aI2
aI00
ag91
ag95
aaa(lp3886
g10
a(lp3887
I177
aI544
aI48
aI118
aNaI0
aI0
aI0
aI230
aI230
aI250
aI1
aI00
ag52
ag98
aaassI86
(dp3888
g100
(lp3889
I0
asg102
g6
sg103
(lp3890
(lp3891
g10
a(lp3892
I401
aI286
aI40
aI35
aNaI0
aI0
aI0
aI255
aI0
aI0
aI2
aI00
ag26
ag27
aaa(lp3893
g10
a(lp3894
I387
aI351
aI99
aI94
ag1283
aI0
aI0
aI0
aI30
aI144
aI255
aI2
aI00
ag31
ag32
aaa(lp3895
g10
a(lp3896
I393
aI272
aI60
aI60
aNaI0
aI0
aI0
aI230
aI230
aI250
aI2
aI00
ag12
ag35
aaa(lp3897
g10
a(lp3898
I307
aI250
aI60
aI58
ag113
aI0
aI0
aI0
aI165
aI42
aI42
aI2
aI00
ag39
ag40
aaa(lp3899
g10
a(lp3900
I392
aI226
aI60
aI60
aNaI0
aI0
aI0
aI230
aI230
aI250
aI2
aI00
ag12
ag43
aaa(lp3901
g10
a(lp3902
I752
aI219
aI60
aI60
aNaI0
aI0
aI0
aI230
aI230
aI250
aI2
aI00
ag12
ag118
aaa(lp3903
g10
a(lp3904
I798
aI219
aI60
aI60
aNaI0
aI0
aI0
aI230
aI230
aI250
aI2
aI00
ag12
ag121
aaa(lp3905
g10
a(lp3906
I895
aI218
aI48
aI118
aNaI0
aI0
aI0
aI230
aI230
aI250
aI1
aI00
ag52
ag53
aaa(lp3907
g10
a(lp3908
I671
aI214
aI48
aI118
aNaI0
aI0
aI0
aI230
aI230
aI250
aI1
aI00
ag52
ag56
aaa(lp3909
g10
a(lp3910
I392
aI144
aI118
aI48
aNaI0
aI0
aI0
aI230
aI230
aI250
aI1
aI00
ag52
ag59
aaa(lp3911
g10
a(lp3912
I390
aI358
aI118
aI48
aNaI0
aI0
aI0
aI230
aI230
aI250
aI1
aI00
ag52
ag62
aaa(lp3913
g10
a(lp3914
I757
aI358
aI101
aI63
ag65
aI0
aI0
aI0
aI160
aI32
aI240
aI2
aI00
ag66
ag67
aaa(lp3915
g10
a(lp3916
I757
aI130
aI101
aI63
ag30
aI0
aI0
aI0
aI160
aI32
aI240
aI2
aI00
ag66
ag70
aaa(lp3917
g10
a(lp3918
I535
aI230
aI63
aI101
ag73
aI0
aI0
aI0
aI160
aI32
aI240
aI2
aI00
ag66
ag74
aaa(lp3919
g10
a(lp3920
I304
aI225
aI63
aI101
ag77
aI0
aI0
aI0
aI160
aI32
aI240
aI2
aI00
ag66
ag78
aaa(lp3921
g10
a(lp3922
I75
aI576
aI60
aI150
aNaI0
aI0
aI0
aI215
aI253
aI254
aI2
aI00
ag52
ag81
aaa(lp3923
g10
a(lp3924
I74
aI485
aI60
aI150
aNaI0
aI0
aI0
aI215
aI253
aI254
aI2
aI00
ag52
ag84
aaa(lp3925
g10
a(lp3926
I11
aI464
aI140
aI280
aNaI0
aI0
aI0
aI144
aI238
aI144
aI2
aI00
ag87
ag88
aaa(lp3927
g10
a(lp3928
I736
aI207
aI140
aI140
aNaI0
aI0
aI0
aI255
aI165
aI0
aI2
aI00
ag91
ag92
aaa(lp3929
g10
a(lp3930
I382
aI207
aI140
aI140
aNaI0
aI0
aI0
aI255
aI165
aI0
aI2
aI00
ag91
ag95
aaa(lp3931
g10
a(lp3932
I177
aI544
aI48
aI118
aNaI0
aI0
aI0
aI230
aI230
aI250
aI1
aI00
ag52
ag98
aaassI87
(dp3933
g100
(lp3934
I0
asg102
g6
sg103
(lp3935
(lp3936
g10
a(lp3937
I401
aI286
aI40
aI35
aNaI0
aI0
aI0
aI255
aI0
aI0
aI2
aI00
ag26
ag27
aaa(lp3938
g10
a(lp3939
I387
aI351
aI99
aI94
ag1283
aI0
aI0
aI0
aI30
aI144
aI255
aI2
aI00
ag31
ag32
aaa(lp3940
g10
a(lp3941
I393
aI272
aI60
aI60
aNaI0
aI0
aI0
aI230
aI230
aI250
aI2
aI00
ag12
ag35
aaa(lp3942
g10
a(lp3943
I307
aI250
aI60
aI58
ag113
aI0
aI0
aI0
aI165
aI42
aI42
aI2
aI00
ag39
ag40
aaa(lp3944
g10
a(lp3945
I392
aI226
aI60
aI60
aNaI0
aI0
aI0
aI230
aI230
aI250
aI2
aI00
ag12
ag43
aaa(lp3946
g10
a(lp3947
I752
aI219
aI60
aI60
aNaI0
aI0
aI0
aI230
aI230
aI250
aI2
aI00
ag12
ag118
aaa(lp3948
g10
a(lp3949
I798
aI219
aI60
aI60
aNaI0
aI0
aI0
aI230
aI230
aI250
aI2
aI00
ag12
ag121
aaa(lp3950
g10
a(lp3951
I895
aI218
aI48
aI118
aNaI0
aI0
aI0
aI230
aI230
aI250
aI1
aI00
ag52
ag53
aaa(lp3952
g10
a(lp3953
I671
aI214
aI48
aI118
aNaI0
aI0
aI0
aI230
aI230
aI250
aI1
aI00
ag52
ag56
aaa(lp3954
g10
a(lp3955
I392
aI144
aI118
aI48
aNaI0
aI0
aI0
aI230
aI230
aI250
aI1
aI00
ag52
ag59
aaa(lp3956
g10
a(lp3957
I390
aI358
aI118
aI48
aNaI0
aI0
aI0
aI230
aI230
aI250
aI1
aI00
ag52
ag62
aaa(lp3958
g10
a(lp3959
I757
aI358
aI101
aI63
ag65
aI0
aI0
aI0
aI160
aI32
aI240
aI2
aI00
ag66
ag67
aaa(lp3960
g10
a(lp3961
I757
aI130
aI101
aI63
ag30
aI0
aI0
aI0
aI160
aI32
aI240
aI2
aI00
ag66
ag70
aaa(lp3962
g10
a(lp3963
I535
aI230
aI63
aI101
ag73
aI0
aI0
aI0
aI160
aI32
aI240
aI2
aI00
ag66
ag74
aaa(lp3964
g10
a(lp3965
I304
aI225
aI63
aI101
ag77
aI0
aI0
aI0
aI160
aI32
aI240
aI2
aI00
ag66
ag78
aaa(lp3966
g10
a(lp3967
I75
aI576
aI60
aI150
aNaI0
aI0
aI0
aI215
aI253
aI254
aI2
aI00
ag52
ag81
aaa(lp3968
g10
a(lp3969
I74
aI485
aI60
aI150
aNaI0
aI0
aI0
aI215
aI253
aI254
aI2
aI00
ag52
ag84
aaa(lp3970
g10
a(lp3971
I11
aI464
aI140
aI280
aNaI0
aI0
aI0
aI144
aI238
aI144
aI2
aI00
ag87
ag88
aaa(lp3972
g10
a(lp3973
I736
aI207
aI140
aI140
aNaI0
aI0
aI0
aI255
aI165
aI0
aI2
aI00
ag91
ag92
aaa(lp3974
g10
a(lp3975
I382
aI207
aI140
aI140
aNaI0
aI0
aI0
aI255
aI165
aI0
aI2
aI00
ag91
ag95
aaa(lp3976
g10
a(lp3977
I177
aI544
aI48
aI118
aNaI0
aI0
aI0
aI230
aI230
aI250
aI1
aI00
ag52
ag98
aaassI88
(dp3978
g100
(lp3979
I0
asg102
g6
sg103
(lp3980
(lp3981
g10
a(lp3982
I401
aI286
aI40
aI35
aNaI0
aI0
aI0
aI255
aI0
aI0
aI2
aI00
ag26
ag27
aaa(lp3983
g10
a(lp3984
I387
aI351
aI99
aI94
ag1283
aI0
aI0
aI0
aI30
aI144
aI255
aI2
aI00
ag31
ag32
aaa(lp3985
g10
a(lp3986
I393
aI272
aI60
aI60
aNaI0
aI0
aI0
aI230
aI230
aI250
aI2
aI00
ag12
ag35
aaa(lp3987
g10
a(lp3988
I307
aI250
aI60
aI58
ag113
aI0
aI0
aI0
aI165
aI42
aI42
aI2
aI00
ag39
ag40
aaa(lp3989
g10
a(lp3990
I392
aI226
aI60
aI60
aNaI0
aI0
aI0
aI230
aI230
aI250
aI2
aI00
ag12
ag43
aaa(lp3991
g10
a(lp3992
I752
aI219
aI60
aI60
aNaI0
aI0
aI0
aI230
aI230
aI250
aI2
aI00
ag12
ag118
aaa(lp3993
g10
a(lp3994
I798
aI219
aI60
aI60
aNaI0
aI0
aI0
aI230
aI230
aI250
aI2
aI00
ag12
ag121
aaa(lp3995
g10
a(lp3996
I895
aI218
aI48
aI118
aNaI0
aI0
aI0
aI230
aI230
aI250
aI1
aI00
ag52
ag53
aaa(lp3997
g10
a(lp3998
I671
aI214
aI48
aI118
aNaI0
aI0
aI0
aI230
aI230
aI250
aI1
aI00
ag52
ag56
aaa(lp3999
g10
a(lp4000
I392
aI144
aI118
aI48
aNaI0
aI0
aI0
aI230
aI230
aI250
aI1
aI00
ag52
ag59
aaa(lp4001
g10
a(lp4002
I390
aI358
aI118
aI48
aNaI0
aI0
aI0
aI230
aI230
aI250
aI1
aI00
ag52
ag62
aaa(lp4003
g10
a(lp4004
I757
aI358
aI101
aI63
ag65
aI0
aI0
aI0
aI160
aI32
aI240
aI2
aI00
ag66
ag67
aaa(lp4005
g10
a(lp4006
I757
aI130
aI101
aI63
ag30
aI0
aI0
aI0
aI160
aI32
aI240
aI2
aI00
ag66
ag70
aaa(lp4007
g10
a(lp4008
I535
aI230
aI63
aI101
ag73
aI0
aI0
aI0
aI160
aI32
aI240
aI2
aI00
ag66
ag74
aaa(lp4009
g10
a(lp4010
I304
aI225
aI63
aI101
ag77
aI0
aI0
aI0
aI160
aI32
aI240
aI2
aI00
ag66
ag78
aaa(lp4011
g10
a(lp4012
I75
aI576
aI60
aI150
aNaI0
aI0
aI0
aI215
aI253
aI254
aI2
aI00
ag52
ag81
aaa(lp4013
g10
a(lp4014
I74
aI485
aI60
aI150
aNaI0
aI0
aI0
aI215
aI253
aI254
aI2
aI00
ag52
ag84
aaa(lp4015
g10
a(lp4016
I11
aI464
aI140
aI280
aNaI0
aI0
aI0
aI144
aI238
aI144
aI2
aI00
ag87
ag88
aaa(lp4017
g10
a(lp4018
I736
aI207
aI140
aI140
aNaI0
aI0
aI0
aI255
aI165
aI0
aI2
aI00
ag91
ag92
aaa(lp4019
g10
a(lp4020
I382
aI207
aI140
aI140
aNaI0
aI0
aI0
aI255
aI165
aI0
aI2
aI00
ag91
ag95
aaa(lp4021
g10
a(lp4022
I177
aI544
aI48
aI118
aNaI0
aI0
aI0
aI230
aI230
aI250
aI1
aI00
ag52
ag98
aaassI89
(dp4023
g100
(lp4024
I0
asg102
g6
sg103
(lp4025
(lp4026
g10
a(lp4027
I401
aI286
aI40
aI35
aNaI0
aI0
aI0
aI255
aI0
aI0
aI2
aI00
ag26
ag27
aaa(lp4028
g10
a(lp4029
I387
aI351
aI99
aI94
ag1283
aI0
aI0
aI0
aI30
aI144
aI255
aI2
aI00
ag31
ag32
aaa(lp4030
g10
a(lp4031
I393
aI272
aI60
aI60
aNaI0
aI0
aI0
aI230
aI230
aI250
aI2
aI00
ag12
ag35
aaa(lp4032
g10
a(lp4033
I307
aI250
aI60
aI58
ag113
aI0
aI0
aI0
aI165
aI42
aI42
aI2
aI00
ag39
ag40
aaa(lp4034
g10
a(lp4035
I392
aI226
aI60
aI60
aNaI0
aI0
aI0
aI230
aI230
aI250
aI2
aI00
ag12
ag43
aaa(lp4036
g10
a(lp4037
I752
aI219
aI60
aI60
aNaI0
aI0
aI0
aI230
aI230
aI250
aI2
aI00
ag12
ag118
aaa(lp4038
g10
a(lp4039
I798
aI219
aI60
aI60
aNaI0
aI0
aI0
aI230
aI230
aI250
aI2
aI00
ag12
ag121
aaa(lp4040
g10
a(lp4041
I895
aI218
aI48
aI118
aNaI0
aI0
aI0
aI230
aI230
aI250
aI1
aI00
ag52
ag53
aaa(lp4042
g10
a(lp4043
I671
aI214
aI48
aI118
aNaI0
aI0
aI0
aI230
aI230
aI250
aI1
aI00
ag52
ag56
aaa(lp4044
g10
a(lp4045
I392
aI144
aI118
aI48
aNaI0
aI0
aI0
aI230
aI230
aI250
aI1
aI00
ag52
ag59
aaa(lp4046
g10
a(lp4047
I390
aI358
aI118
aI48
aNaI0
aI0
aI0
aI230
aI230
aI250
aI1
aI00
ag52
ag62
aaa(lp4048
g10
a(lp4049
I757
aI358
aI101
aI63
ag65
aI0
aI0
aI0
aI160
aI32
aI240
aI2
aI00
ag66
ag67
aaa(lp4050
g10
a(lp4051
I757
aI130
aI101
aI63
ag30
aI0
aI0
aI0
aI160
aI32
aI240
aI2
aI00
ag66
ag70
aaa(lp4052
g10
a(lp4053
I535
aI230
aI63
aI101
ag73
aI0
aI0
aI0
aI160
aI32
aI240
aI2
aI00
ag66
ag74
aaa(lp4054
g10
a(lp4055
I304
aI225
aI63
aI101
ag77
aI0
aI0
aI0
aI160
aI32
aI240
aI2
aI00
ag66
ag78
aaa(lp4056
g10
a(lp4057
I75
aI576
aI60
aI150
aNaI0
aI0
aI0
aI215
aI253
aI254
aI2
aI00
ag52
ag81
aaa(lp4058
g10
a(lp4059
I74
aI485
aI60
aI150
aNaI0
aI0
aI0
aI215
aI253
aI254
aI2
aI00
ag52
ag84
aaa(lp4060
g10
a(lp4061
I11
aI464
aI140
aI280
aNaI0
aI0
aI0
aI144
aI238
aI144
aI2
aI00
ag87
ag88
aaa(lp4062
g10
a(lp4063
I736
aI207
aI140
aI140
aNaI0
aI0
aI0
aI255
aI165
aI0
aI2
aI00
ag91
ag92
aaa(lp4064
g10
a(lp4065
I382
aI207
aI140
aI140
aNaI0
aI0
aI0
aI255
aI165
aI0
aI2
aI00
ag91
ag95
aaa(lp4066
g10
a(lp4067
I177
aI544
aI48
aI118
aNaI0
aI0
aI0
aI230
aI230
aI250
aI1
aI00
ag52
ag98
aaassI90
(dp4068
g100
(lp4069
I0
asg102
g6
sg103
(lp4070
(lp4071
g10
a(lp4072
I401
aI286
aI40
aI35
aNaI0
aI0
aI0
aI255
aI0
aI0
aI2
aI00
ag26
ag27
aaa(lp4073
g10
a(lp4074
I387
aI351
aI99
aI94
ag1283
aI0
aI0
aI0
aI30
aI144
aI255
aI2
aI00
ag31
ag32
aaa(lp4075
g10
a(lp4076
I393
aI272
aI60
aI60
aNaI0
aI0
aI0
aI230
aI230
aI250
aI2
aI00
ag12
ag35
aaa(lp4077
g10
a(lp4078
I307
aI250
aI60
aI58
ag113
aI0
aI0
aI0
aI165
aI42
aI42
aI2
aI00
ag39
ag40
aaa(lp4079
g10
a(lp4080
I392
aI226
aI60
aI60
aNaI0
aI0
aI0
aI230
aI230
aI250
aI2
aI00
ag12
ag43
aaa(lp4081
g10
a(lp4082
I752
aI219
aI60
aI60
aNaI0
aI0
aI0
aI230
aI230
aI250
aI2
aI00
ag12
ag118
aaa(lp4083
g10
a(lp4084
I798
aI219
aI60
aI60
aNaI0
aI0
aI0
aI230
aI230
aI250
aI2
aI00
ag12
ag121
aaa(lp4085
g10
a(lp4086
I895
aI218
aI48
aI118
aNaI0
aI0
aI0
aI230
aI230
aI250
aI1
aI00
ag52
ag53
aaa(lp4087
g10
a(lp4088
I671
aI214
aI48
aI118
aNaI0
aI0
aI0
aI230
aI230
aI250
aI1
aI00
ag52
ag56
aaa(lp4089
g10
a(lp4090
I392
aI144
aI118
aI48
aNaI0
aI0
aI0
aI230
aI230
aI250
aI1
aI00
ag52
ag59
aaa(lp4091
g10
a(lp4092
I390
aI358
aI118
aI48
aNaI0
aI0
aI0
aI230
aI230
aI250
aI1
aI00
ag52
ag62
aaa(lp4093
g10
a(lp4094
I757
aI358
aI101
aI63
ag65
aI0
aI0
aI0
aI160
aI32
aI240
aI2
aI00
ag66
ag67
aaa(lp4095
g10
a(lp4096
I757
aI130
aI101
aI63
ag30
aI0
aI0
aI0
aI160
aI32
aI240
aI2
aI00
ag66
ag70
aaa(lp4097
g10
a(lp4098
I535
aI230
aI63
aI101
ag73
aI0
aI0
aI0
aI160
aI32
aI240
aI2
aI00
ag66
ag74
aaa(lp4099
g10
a(lp4100
I304
aI225
aI63
aI101
ag77
aI0
aI0
aI0
aI160
aI32
aI240
aI2
aI00
ag66
ag78
aaa(lp4101
g10
a(lp4102
I75
aI576
aI60
aI150
aNaI0
aI0
aI0
aI215
aI253
aI254
aI2
aI00
ag52
ag81
aaa(lp4103
g10
a(lp4104
I74
aI485
aI60
aI150
aNaI0
aI0
aI0
aI215
aI253
aI254
aI2
aI00
ag52
ag84
aaa(lp4105
g10
a(lp4106
I11
aI464
aI140
aI280
aNaI0
aI0
aI0
aI144
aI238
aI144
aI2
aI00
ag87
ag88
aaa(lp4107
g10
a(lp4108
I736
aI207
aI140
aI140
aNaI0
aI0
aI0
aI255
aI165
aI0
aI2
aI00
ag91
ag92
aaa(lp4109
g10
a(lp4110
I382
aI207
aI140
aI140
aNaI0
aI0
aI0
aI255
aI165
aI0
aI2
aI00
ag91
ag95
aaa(lp4111
g10
a(lp4112
I177
aI544
aI48
aI118
aNaI0
aI0
aI0
aI230
aI230
aI250
aI1
aI00
ag52
ag98
aaass.