(dp1
I1
(dp2
S'selection'
p3
(lp4
I0
asS'groups'
p5
(dp6
sS'contents'
p7
(lp8
(lp9
c__main__
RectDrawingObject
p10
a(lp11
I409
aI278
aI156
aI94
aS'DOWN'
p12
aI0
aI0
aI0
aI215
aI253
aI254
aI2
aI00
aS'obj'
p13
aS'2'
aaa(lp14
g10
a(lp15
I75
aI76
aI116
aI82
ag12
aI0
aI0
aI0
aI215
aI253
aI254
aI2
aI00
ag13
aS'1'
aaass.